
linefolower.elf:     file format elf32-avr

Sections:
Idx Name          Size      VMA       LMA       File off  Algn
  0 .data         00000026  00800100  00002196  0000222a  2**0
                  CONTENTS, ALLOC, LOAD, DATA
  1 .text         00002196  00000000  00000000  00000094  2**1
                  CONTENTS, ALLOC, LOAD, READONLY, CODE
  2 .bss          000000dd  00800126  00800126  00002250  2**0
                  ALLOC
  3 .comment      00000030  00000000  00000000  00002250  2**0
                  CONTENTS, READONLY
  4 .note.gnu.avr.deviceinfo 00000040  00000000  00000000  00002280  2**2
                  CONTENTS, READONLY
  5 .debug_aranges 00000158  00000000  00000000  000022c0  2**0
                  CONTENTS, READONLY, DEBUGGING
  6 .debug_info   00004ebf  00000000  00000000  00002418  2**0
                  CONTENTS, READONLY, DEBUGGING
  7 .debug_abbrev 00000ca8  00000000  00000000  000072d7  2**0
                  CONTENTS, READONLY, DEBUGGING
  8 .debug_line   00001fa6  00000000  00000000  00007f7f  2**0
                  CONTENTS, READONLY, DEBUGGING
  9 .debug_frame  00000510  00000000  00000000  00009f28  2**2
                  CONTENTS, READONLY, DEBUGGING
 10 .debug_str    0000158e  00000000  00000000  0000a438  2**0
                  CONTENTS, READONLY, DEBUGGING
 11 .debug_loc    00003959  00000000  00000000  0000b9c6  2**0
                  CONTENTS, READONLY, DEBUGGING
 12 .debug_ranges 000002c8  00000000  00000000  0000f31f  2**0
                  CONTENTS, READONLY, DEBUGGING

Disassembly of section .text:

00000000 <__vectors>:
       0:	0c 94 35 00 	jmp	0x6a	; 0x6a <__ctors_end>
       4:	0c 94 5d 00 	jmp	0xba	; 0xba <__bad_interrupt>
       8:	0c 94 5d 00 	jmp	0xba	; 0xba <__bad_interrupt>
       c:	0c 94 5d 00 	jmp	0xba	; 0xba <__bad_interrupt>
      10:	0c 94 5d 00 	jmp	0xba	; 0xba <__bad_interrupt>
      14:	0c 94 5d 00 	jmp	0xba	; 0xba <__bad_interrupt>
      18:	0c 94 5d 00 	jmp	0xba	; 0xba <__bad_interrupt>
      1c:	0c 94 5d 00 	jmp	0xba	; 0xba <__bad_interrupt>
      20:	0c 94 5d 00 	jmp	0xba	; 0xba <__bad_interrupt>
      24:	0c 94 5d 00 	jmp	0xba	; 0xba <__bad_interrupt>
      28:	0c 94 5d 00 	jmp	0xba	; 0xba <__bad_interrupt>
      2c:	0c 94 5d 00 	jmp	0xba	; 0xba <__bad_interrupt>
      30:	0c 94 5d 00 	jmp	0xba	; 0xba <__bad_interrupt>
      34:	0c 94 5d 00 	jmp	0xba	; 0xba <__bad_interrupt>
      38:	0c 94 5d 00 	jmp	0xba	; 0xba <__bad_interrupt>
      3c:	0c 94 5d 00 	jmp	0xba	; 0xba <__bad_interrupt>
      40:	0c 94 e6 00 	jmp	0x1cc	; 0x1cc <__vector_16>
      44:	0c 94 5d 00 	jmp	0xba	; 0xba <__bad_interrupt>
      48:	0c 94 72 0a 	jmp	0x14e4	; 0x14e4 <__vector_18>
      4c:	0c 94 c8 0a 	jmp	0x1590	; 0x1590 <__vector_19>
      50:	0c 94 5d 00 	jmp	0xba	; 0xba <__bad_interrupt>
      54:	0c 94 e3 01 	jmp	0x3c6	; 0x3c6 <__vector_21>
      58:	0c 94 5d 00 	jmp	0xba	; 0xba <__bad_interrupt>
      5c:	0c 94 5d 00 	jmp	0xba	; 0xba <__bad_interrupt>
      60:	0c 94 5d 00 	jmp	0xba	; 0xba <__bad_interrupt>
      64:	0c 94 5d 00 	jmp	0xba	; 0xba <__bad_interrupt>

00000068 <__ctors_start>:
      68:	1b 10       	cpse	r1, r11

0000006a <__ctors_end>:
      6a:	11 24       	eor	r1, r1
      6c:	1f be       	out	0x3f, r1	; 63
      6e:	cf ef       	ldi	r28, 0xFF	; 255
      70:	d8 e0       	ldi	r29, 0x08	; 8
      72:	de bf       	out	0x3e, r29	; 62
      74:	cd bf       	out	0x3d, r28	; 61

00000076 <__do_copy_data>:
      76:	11 e0       	ldi	r17, 0x01	; 1
      78:	a0 e0       	ldi	r26, 0x00	; 0
      7a:	b1 e0       	ldi	r27, 0x01	; 1
      7c:	e6 e9       	ldi	r30, 0x96	; 150
      7e:	f1 e2       	ldi	r31, 0x21	; 33
      80:	02 c0       	rjmp	.+4      	; 0x86 <__do_copy_data+0x10>
      82:	05 90       	lpm	r0, Z+
      84:	0d 92       	st	X+, r0
      86:	a6 32       	cpi	r26, 0x26	; 38
      88:	b1 07       	cpc	r27, r17
      8a:	d9 f7       	brne	.-10     	; 0x82 <__do_copy_data+0xc>

0000008c <__do_clear_bss>:
      8c:	22 e0       	ldi	r18, 0x02	; 2
      8e:	a6 e2       	ldi	r26, 0x26	; 38
      90:	b1 e0       	ldi	r27, 0x01	; 1
      92:	01 c0       	rjmp	.+2      	; 0x96 <.do_clear_bss_start>

00000094 <.do_clear_bss_loop>:
      94:	1d 92       	st	X+, r1

00000096 <.do_clear_bss_start>:
      96:	a3 30       	cpi	r26, 0x03	; 3
      98:	b2 07       	cpc	r27, r18
      9a:	e1 f7       	brne	.-8      	; 0x94 <.do_clear_bss_loop>

0000009c <__do_global_ctors>:
      9c:	10 e0       	ldi	r17, 0x00	; 0
      9e:	c5 e3       	ldi	r28, 0x35	; 53
      a0:	d0 e0       	ldi	r29, 0x00	; 0
      a2:	04 c0       	rjmp	.+8      	; 0xac <__do_global_ctors+0x10>
      a4:	21 97       	sbiw	r28, 0x01	; 1
      a6:	fe 01       	movw	r30, r28
      a8:	0e 94 c3 10 	call	0x2186	; 0x2186 <__tablejump2__>
      ac:	c4 33       	cpi	r28, 0x34	; 52
      ae:	d1 07       	cpc	r29, r17
      b0:	c9 f7       	brne	.-14     	; 0xa4 <__do_global_ctors+0x8>
      b2:	0e 94 cb 0f 	call	0x1f96	; 0x1f96 <main>
      b6:	0c 94 c9 10 	jmp	0x2192	; 0x2192 <_exit>

000000ba <__bad_interrupt>:
      ba:	0c 94 00 00 	jmp	0	; 0x0 <__vectors>

000000be <_Z11init_buzzerv>:
        }
    }

    if(bits)
        store_eeprom(address, uint8_t(val));
}
      be:	8a e0       	ldi	r24, 0x0A	; 10
      c0:	80 93 81 00 	sts	0x0081, r24	; 0x800081 <__DATA_REGION_ORIGIN__+0x21>
      c4:	10 92 8b 00 	sts	0x008B, r1	; 0x80008b <__DATA_REGION_ORIGIN__+0x2b>
      c8:	10 92 8a 00 	sts	0x008A, r1	; 0x80008a <__DATA_REGION_ORIGIN__+0x2a>
      cc:	22 9a       	sbi	0x04, 2	; 4
      ce:	2a 98       	cbi	0x05, 2	; 5
      d0:	08 95       	ret

000000d2 <_Z11init_motorsv>:
      d2:	83 ef       	ldi	r24, 0xF3	; 243
      d4:	80 93 b0 00 	sts	0x00B0, r24	; 0x8000b0 <__DATA_REGION_ORIGIN__+0x50>
      d8:	84 bd       	out	0x24, r24	; 36
      da:	82 e0       	ldi	r24, 0x02	; 2
      dc:	80 93 b1 00 	sts	0x00B1, r24	; 0x8000b1 <__DATA_REGION_ORIGIN__+0x51>
      e0:	85 bd       	out	0x25, r24	; 37
      e2:	10 92 b4 00 	sts	0x00B4, r1	; 0x8000b4 <__DATA_REGION_ORIGIN__+0x54>
      e6:	10 92 b3 00 	sts	0x00B3, r1	; 0x8000b3 <__DATA_REGION_ORIGIN__+0x53>
      ea:	18 bc       	out	0x28, r1	; 40
      ec:	17 bc       	out	0x27, r1	; 39
      ee:	ee e6       	ldi	r30, 0x6E	; 110
      f0:	f0 e0       	ldi	r31, 0x00	; 0
      f2:	80 81       	ld	r24, Z
      f4:	81 60       	ori	r24, 0x01	; 1
      f6:	80 83       	st	Z, r24
      f8:	8a b1       	in	r24, 0x0a	; 10
      fa:	88 66       	ori	r24, 0x68	; 104
      fc:	8a b9       	out	0x0a, r24	; 10
      fe:	23 9a       	sbi	0x04, 3	; 4
     100:	5d 98       	cbi	0x0b, 5	; 11
     102:	5e 98       	cbi	0x0b, 6	; 11
     104:	5b 98       	cbi	0x0b, 3	; 11
     106:	2b 98       	cbi	0x05, 3	; 5
     108:	08 95       	ret

0000010a <_Z12clean_motorsv>:
     10a:	14 bc       	out	0x24, r1	; 36
     10c:	10 92 b0 00 	sts	0x00B0, r1	; 0x8000b0 <__DATA_REGION_ORIGIN__+0x50>
     110:	15 bc       	out	0x25, r1	; 37
     112:	10 92 b1 00 	sts	0x00B1, r1	; 0x8000b1 <__DATA_REGION_ORIGIN__+0x51>
     116:	08 95       	ret

00000118 <_ZN6detail12setLeftMotorEi>:
     118:	99 23       	and	r25, r25
     11a:	64 f4       	brge	.+24     	; 0x134 <_ZN6detail12setLeftMotorEi+0x1c>
     11c:	18 bc       	out	0x28, r1	; 40
     11e:	91 95       	neg	r25
     120:	81 95       	neg	r24
     122:	91 09       	sbc	r25, r1
     124:	8f 3f       	cpi	r24, 0xFF	; 255
     126:	91 05       	cpc	r25, r1
     128:	19 f0       	breq	.+6      	; 0x130 <_ZN6detail12setLeftMotorEi+0x18>
     12a:	14 f0       	brlt	.+4      	; 0x130 <_ZN6detail12setLeftMotorEi+0x18>
     12c:	8f ef       	ldi	r24, 0xFF	; 255
     12e:	90 e0       	ldi	r25, 0x00	; 0
     130:	87 bd       	out	0x27, r24	; 39
     132:	08 95       	ret
     134:	8f 3f       	cpi	r24, 0xFF	; 255
     136:	91 05       	cpc	r25, r1
     138:	19 f0       	breq	.+6      	; 0x140 <_ZN6detail12setLeftMotorEi+0x28>
     13a:	14 f0       	brlt	.+4      	; 0x140 <_ZN6detail12setLeftMotorEi+0x28>
     13c:	8f ef       	ldi	r24, 0xFF	; 255
     13e:	90 e0       	ldi	r25, 0x00	; 0
     140:	88 bd       	out	0x28, r24	; 40
     142:	17 bc       	out	0x27, r1	; 39
     144:	08 95       	ret

00000146 <_ZN6detail13setRightMotorEi>:
     146:	99 23       	and	r25, r25
     148:	74 f4       	brge	.+28     	; 0x166 <_ZN6detail13setRightMotorEi+0x20>
     14a:	10 92 b4 00 	sts	0x00B4, r1	; 0x8000b4 <__DATA_REGION_ORIGIN__+0x54>
     14e:	91 95       	neg	r25
     150:	81 95       	neg	r24
     152:	91 09       	sbc	r25, r1
     154:	8f 3f       	cpi	r24, 0xFF	; 255
     156:	91 05       	cpc	r25, r1
     158:	19 f0       	breq	.+6      	; 0x160 <_ZN6detail13setRightMotorEi+0x1a>
     15a:	14 f0       	brlt	.+4      	; 0x160 <_ZN6detail13setRightMotorEi+0x1a>
     15c:	8f ef       	ldi	r24, 0xFF	; 255
     15e:	90 e0       	ldi	r25, 0x00	; 0
     160:	80 93 b3 00 	sts	0x00B3, r24	; 0x8000b3 <__DATA_REGION_ORIGIN__+0x53>
     164:	08 95       	ret
     166:	8f 3f       	cpi	r24, 0xFF	; 255
     168:	91 05       	cpc	r25, r1
     16a:	19 f0       	breq	.+6      	; 0x172 <_ZN6detail13setRightMotorEi+0x2c>
     16c:	14 f0       	brlt	.+4      	; 0x172 <_ZN6detail13setRightMotorEi+0x2c>
     16e:	8f ef       	ldi	r24, 0xFF	; 255
     170:	90 e0       	ldi	r25, 0x00	; 0
     172:	80 93 b4 00 	sts	0x00B4, r24	; 0x8000b4 <__DATA_REGION_ORIGIN__+0x54>
     176:	10 92 b3 00 	sts	0x00B3, r1	; 0x8000b3 <__DATA_REGION_ORIGIN__+0x53>
     17a:	08 95       	ret

0000017c <_Z13setRightMotori>:
     17c:	90 93 f6 01 	sts	0x01F6, r25	; 0x8001f6 <_ZN6detail7g_speedE+0x3>
     180:	80 93 f5 01 	sts	0x01F5, r24	; 0x8001f5 <_ZN6detail7g_speedE+0x2>
     184:	20 91 03 01 	lds	r18, 0x0103	; 0x800103 <_ZN6detail16g_soft_speed_setE>
     188:	22 23       	and	r18, r18
     18a:	21 f0       	breq	.+8      	; 0x194 <_Z13setRightMotori+0x18>
     18c:	81 e0       	ldi	r24, 0x01	; 1
     18e:	80 93 ee 01 	sts	0x01EE, r24	; 0x8001ee <_ZN6detail16g_need_set_speedE+0x1>
     192:	08 95       	ret
     194:	0e 94 a3 00 	call	0x146	; 0x146 <_ZN6detail13setRightMotorEi>
     198:	08 95       	ret

0000019a <_Z12setLeftMotori>:
     19a:	90 93 f4 01 	sts	0x01F4, r25	; 0x8001f4 <_ZN6detail7g_speedE+0x1>
     19e:	80 93 f3 01 	sts	0x01F3, r24	; 0x8001f3 <_ZN6detail7g_speedE>
     1a2:	20 91 03 01 	lds	r18, 0x0103	; 0x800103 <_ZN6detail16g_soft_speed_setE>
     1a6:	22 23       	and	r18, r18
     1a8:	21 f0       	breq	.+8      	; 0x1b2 <_Z12setLeftMotori+0x18>
     1aa:	81 e0       	ldi	r24, 0x01	; 1
     1ac:	80 93 ed 01 	sts	0x01ED, r24	; 0x8001ed <_ZN6detail16g_need_set_speedE>
     1b0:	08 95       	ret
     1b2:	0e 94 8c 00 	call	0x118	; 0x118 <_ZN6detail12setLeftMotorEi>
     1b6:	08 95       	ret

000001b8 <_Z15setMotorPowerIDhi>:
     1b8:	88 23       	and	r24, r24
     1ba:	21 f0       	breq	.+8      	; 0x1c4 <_Z15setMotorPowerIDhi+0xc>
     1bc:	cb 01       	movw	r24, r22
     1be:	0e 94 a3 00 	call	0x146	; 0x146 <_ZN6detail13setRightMotorEi>
     1c2:	08 95       	ret
     1c4:	cb 01       	movw	r24, r22
     1c6:	0e 94 8c 00 	call	0x118	; 0x118 <_ZN6detail12setLeftMotorEi>
     1ca:	08 95       	ret

000001cc <__vector_16>:
     1cc:	1f 92       	push	r1
     1ce:	0f 92       	push	r0
     1d0:	0f b6       	in	r0, 0x3f	; 63
     1d2:	0f 92       	push	r0
     1d4:	11 24       	eor	r1, r1
     1d6:	2f 93       	push	r18
     1d8:	3f 93       	push	r19
     1da:	4f 93       	push	r20
     1dc:	5f 93       	push	r21
     1de:	6f 93       	push	r22
     1e0:	7f 93       	push	r23
     1e2:	8f 93       	push	r24
     1e4:	9f 93       	push	r25
     1e6:	af 93       	push	r26
     1e8:	bf 93       	push	r27
     1ea:	cf 93       	push	r28
     1ec:	df 93       	push	r29
     1ee:	ef 93       	push	r30
     1f0:	ff 93       	push	r31
     1f2:	80 91 eb 01 	lds	r24, 0x01EB	; 0x8001eb <_ZN6detail11g_sub_timerE>
     1f6:	8f 5f       	subi	r24, 0xFF	; 255
     1f8:	80 93 eb 01 	sts	0x01EB, r24	; 0x8001eb <_ZN6detail11g_sub_timerE>
     1fc:	8a 30       	cpi	r24, 0x0A	; 10
     1fe:	09 f0       	breq	.+2      	; 0x202 <__vector_16+0x36>
     200:	cf c0       	rjmp	.+414    	; 0x3a0 <__vector_16+0x1d4>
     202:	10 92 eb 01 	sts	0x01EB, r1	; 0x8001eb <_ZN6detail11g_sub_timerE>
     206:	80 91 e7 01 	lds	r24, 0x01E7	; 0x8001e7 <_ZN6detail7g_timerE>
     20a:	90 91 e8 01 	lds	r25, 0x01E8	; 0x8001e8 <_ZN6detail7g_timerE+0x1>
     20e:	a0 91 e9 01 	lds	r26, 0x01E9	; 0x8001e9 <_ZN6detail7g_timerE+0x2>
     212:	b0 91 ea 01 	lds	r27, 0x01EA	; 0x8001ea <_ZN6detail7g_timerE+0x3>
     216:	01 96       	adiw	r24, 0x01	; 1
     218:	a1 1d       	adc	r26, r1
     21a:	b1 1d       	adc	r27, r1
     21c:	80 93 e7 01 	sts	0x01E7, r24	; 0x8001e7 <_ZN6detail7g_timerE>
     220:	90 93 e8 01 	sts	0x01E8, r25	; 0x8001e8 <_ZN6detail7g_timerE+0x1>
     224:	a0 93 e9 01 	sts	0x01E9, r26	; 0x8001e9 <_ZN6detail7g_timerE+0x2>
     228:	b0 93 ea 01 	sts	0x01EA, r27	; 0x8001ea <_ZN6detail7g_timerE+0x3>
     22c:	80 91 00 02 	lds	r24, 0x0200	; 0x800200 <buzzer+0x9>
     230:	88 23       	and	r24, r24
     232:	09 f4       	brne	.+2      	; 0x236 <__vector_16+0x6a>
     234:	4a c0       	rjmp	.+148    	; 0x2ca <__vector_16+0xfe>
     236:	80 91 fd 01 	lds	r24, 0x01FD	; 0x8001fd <buzzer+0x6>
     23a:	90 91 fe 01 	lds	r25, 0x01FE	; 0x8001fe <buzzer+0x7>
     23e:	8f 3f       	cpi	r24, 0xFF	; 255
     240:	2f ef       	ldi	r18, 0xFF	; 255
     242:	92 07       	cpc	r25, r18
     244:	09 f4       	brne	.+2      	; 0x248 <__vector_16+0x7c>
     246:	41 c0       	rjmp	.+130    	; 0x2ca <__vector_16+0xfe>
     248:	01 97       	sbiw	r24, 0x01	; 1
     24a:	90 93 fe 01 	sts	0x01FE, r25	; 0x8001fe <buzzer+0x7>
     24e:	80 93 fd 01 	sts	0x01FD, r24	; 0x8001fd <buzzer+0x6>
     252:	89 2b       	or	r24, r25
     254:	d1 f5       	brne	.+116    	; 0x2ca <__vector_16+0xfe>
     256:	80 91 ff 01 	lds	r24, 0x01FF	; 0x8001ff <buzzer+0x8>
     25a:	88 23       	and	r24, r24
     25c:	f9 f0       	breq	.+62     	; 0x29c <__vector_16+0xd0>
     25e:	80 91 fb 01 	lds	r24, 0x01FB	; 0x8001fb <buzzer+0x4>
     262:	90 91 fc 01 	lds	r25, 0x01FC	; 0x8001fc <buzzer+0x5>
     266:	00 97       	sbiw	r24, 0x00	; 0
     268:	39 f4       	brne	.+14     	; 0x278 <__vector_16+0xac>
     26a:	8f ef       	ldi	r24, 0xFF	; 255
     26c:	9f ef       	ldi	r25, 0xFF	; 255
     26e:	90 93 fe 01 	sts	0x01FE, r25	; 0x8001fe <buzzer+0x7>
     272:	80 93 fd 01 	sts	0x01FD, r24	; 0x8001fd <buzzer+0x6>
     276:	04 c0       	rjmp	.+8      	; 0x280 <__vector_16+0xb4>
     278:	90 93 fe 01 	sts	0x01FE, r25	; 0x8001fe <buzzer+0x7>
     27c:	80 93 fd 01 	sts	0x01FD, r24	; 0x8001fd <buzzer+0x6>
     280:	e0 e8       	ldi	r30, 0x80	; 128
     282:	f0 e0       	ldi	r31, 0x00	; 0
     284:	80 81       	ld	r24, Z
     286:	8f 7e       	andi	r24, 0xEF	; 239
     288:	80 83       	st	Z, r24
     28a:	e7 ef       	ldi	r30, 0xF7	; 247
     28c:	f1 e0       	ldi	r31, 0x01	; 1
     28e:	81 81       	ldd	r24, Z+1	; 0x01
     290:	80 93 89 00 	sts	0x0089, r24	; 0x800089 <__DATA_REGION_ORIGIN__+0x29>
     294:	80 81       	ld	r24, Z
     296:	80 93 88 00 	sts	0x0088, r24	; 0x800088 <__DATA_REGION_ORIGIN__+0x28>
     29a:	11 c0       	rjmp	.+34     	; 0x2be <__vector_16+0xf2>
     29c:	e7 ef       	ldi	r30, 0xF7	; 247
     29e:	f1 e0       	ldi	r31, 0x01	; 1
     2a0:	82 81       	ldd	r24, Z+2	; 0x02
     2a2:	93 81       	ldd	r25, Z+3	; 0x03
     2a4:	97 83       	std	Z+7, r25	; 0x07
     2a6:	86 83       	std	Z+6, r24	; 0x06
     2a8:	a0 e8       	ldi	r26, 0x80	; 128
     2aa:	b0 e0       	ldi	r27, 0x00	; 0
     2ac:	8c 91       	ld	r24, X
     2ae:	80 61       	ori	r24, 0x10	; 16
     2b0:	8c 93       	st	X, r24
     2b2:	81 81       	ldd	r24, Z+1	; 0x01
     2b4:	80 93 89 00 	sts	0x0089, r24	; 0x800089 <__DATA_REGION_ORIGIN__+0x29>
     2b8:	80 81       	ld	r24, Z
     2ba:	80 93 88 00 	sts	0x0088, r24	; 0x800088 <__DATA_REGION_ORIGIN__+0x28>
     2be:	e7 ef       	ldi	r30, 0xF7	; 247
     2c0:	f1 e0       	ldi	r31, 0x01	; 1
     2c2:	90 85       	ldd	r25, Z+8	; 0x08
     2c4:	81 e0       	ldi	r24, 0x01	; 1
     2c6:	89 27       	eor	r24, r25
     2c8:	80 87       	std	Z+8, r24	; 0x08
     2ca:	80 91 ec 01 	lds	r24, 0x01EC	; 0x8001ec <_ZN6detail17g_speed_is_settedE>
     2ce:	81 11       	cpse	r24, r1
     2d0:	67 c0       	rjmp	.+206    	; 0x3a0 <__vector_16+0x1d4>
     2d2:	81 e0       	ldi	r24, 0x01	; 1
     2d4:	80 93 ec 01 	sts	0x01EC, r24	; 0x8001ec <_ZN6detail17g_speed_is_settedE>
     2d8:	c0 e0       	ldi	r28, 0x00	; 0
     2da:	d0 e0       	ldi	r29, 0x00	; 0
     2dc:	8c 2f       	mov	r24, r28
     2de:	9e 01       	movw	r18, r28
     2e0:	fe 01       	movw	r30, r28
     2e2:	e3 51       	subi	r30, 0x13	; 19
     2e4:	fe 4f       	sbci	r31, 0xFE	; 254
     2e6:	90 81       	ld	r25, Z
     2e8:	99 23       	and	r25, r25
     2ea:	09 f4       	brne	.+2      	; 0x2ee <__vector_16+0x122>
     2ec:	52 c0       	rjmp	.+164    	; 0x392 <__vector_16+0x1c6>
     2ee:	ae 01       	movw	r20, r28
     2f0:	44 0f       	add	r20, r20
     2f2:	55 1f       	adc	r21, r21
     2f4:	fa 01       	movw	r30, r20
     2f6:	ed 50       	subi	r30, 0x0D	; 13
     2f8:	fe 4f       	sbci	r31, 0xFE	; 254
     2fa:	60 81       	ld	r22, Z
     2fc:	71 81       	ldd	r23, Z+1	; 0x01
     2fe:	fa 01       	movw	r30, r20
     300:	e1 51       	subi	r30, 0x11	; 17
     302:	fe 4f       	sbci	r31, 0xFE	; 254
     304:	40 81       	ld	r20, Z
     306:	51 81       	ldd	r21, Z+1	; 0x01
     308:	64 17       	cp	r22, r20
     30a:	75 07       	cpc	r23, r21
     30c:	29 f4       	brne	.+10     	; 0x318 <__vector_16+0x14c>
     30e:	f9 01       	movw	r30, r18
     310:	e3 51       	subi	r30, 0x13	; 19
     312:	fe 4f       	sbci	r31, 0xFE	; 254
     314:	10 82       	st	Z, r1
     316:	3d c0       	rjmp	.+122    	; 0x392 <__vector_16+0x1c6>
     318:	a9 01       	movw	r20, r18
     31a:	44 0f       	add	r20, r20
     31c:	55 1f       	adc	r21, r21
     31e:	fa 01       	movw	r30, r20
     320:	ed 50       	subi	r30, 0x0D	; 13
     322:	fe 4f       	sbci	r31, 0xFE	; 254
     324:	60 81       	ld	r22, Z
     326:	71 81       	ldd	r23, Z+1	; 0x01
     328:	fa 01       	movw	r30, r20
     32a:	e1 51       	subi	r30, 0x11	; 17
     32c:	fe 4f       	sbci	r31, 0xFE	; 254
     32e:	40 81       	ld	r20, Z
     330:	51 81       	ldd	r21, Z+1	; 0x01
     332:	64 1b       	sub	r22, r20
     334:	75 0b       	sbc	r23, r21
     336:	ab 01       	movw	r20, r22
     338:	22 f4       	brpl	.+8      	; 0x342 <__vector_16+0x176>
     33a:	44 27       	eor	r20, r20
     33c:	55 27       	eor	r21, r21
     33e:	46 1b       	sub	r20, r22
     340:	57 0b       	sbc	r21, r23
     342:	14 16       	cp	r1, r20
     344:	15 06       	cpc	r1, r21
     346:	14 f4       	brge	.+4      	; 0x34c <__vector_16+0x180>
     348:	41 e0       	ldi	r20, 0x01	; 1
     34a:	50 e0       	ldi	r21, 0x00	; 0
     34c:	b9 01       	movw	r22, r18
     34e:	66 0f       	add	r22, r22
     350:	77 1f       	adc	r23, r23
     352:	fb 01       	movw	r30, r22
     354:	ed 50       	subi	r30, 0x0D	; 13
     356:	fe 4f       	sbci	r31, 0xFE	; 254
     358:	01 90       	ld	r0, Z+
     35a:	f0 81       	ld	r31, Z
     35c:	e0 2d       	mov	r30, r0
     35e:	db 01       	movw	r26, r22
     360:	a1 51       	subi	r26, 0x11	; 17
     362:	be 4f       	sbci	r27, 0xFE	; 254
     364:	6d 91       	ld	r22, X+
     366:	7c 91       	ld	r23, X
     368:	e6 17       	cp	r30, r22
     36a:	f7 07       	cpc	r31, r23
     36c:	1c f4       	brge	.+6      	; 0x374 <__vector_16+0x1a8>
     36e:	51 95       	neg	r21
     370:	41 95       	neg	r20
     372:	51 09       	sbc	r21, r1
     374:	22 0f       	add	r18, r18
     376:	33 1f       	adc	r19, r19
     378:	f9 01       	movw	r30, r18
     37a:	e1 51       	subi	r30, 0x11	; 17
     37c:	fe 4f       	sbci	r31, 0xFE	; 254
     37e:	20 81       	ld	r18, Z
     380:	31 81       	ldd	r19, Z+1	; 0x01
     382:	42 0f       	add	r20, r18
     384:	53 1f       	adc	r21, r19
     386:	51 83       	std	Z+1, r21	; 0x01
     388:	40 83       	st	Z, r20
     38a:	60 81       	ld	r22, Z
     38c:	71 81       	ldd	r23, Z+1	; 0x01
     38e:	0e 94 dc 00 	call	0x1b8	; 0x1b8 <_Z15setMotorPowerIDhi>
     392:	21 96       	adiw	r28, 0x01	; 1
     394:	c2 30       	cpi	r28, 0x02	; 2
     396:	d1 05       	cpc	r29, r1
     398:	09 f0       	breq	.+2      	; 0x39c <__vector_16+0x1d0>
     39a:	a0 cf       	rjmp	.-192    	; 0x2dc <__vector_16+0x110>
     39c:	10 92 ec 01 	sts	0x01EC, r1	; 0x8001ec <_ZN6detail17g_speed_is_settedE>
     3a0:	ff 91       	pop	r31
     3a2:	ef 91       	pop	r30
     3a4:	df 91       	pop	r29
     3a6:	cf 91       	pop	r28
     3a8:	bf 91       	pop	r27
     3aa:	af 91       	pop	r26
     3ac:	9f 91       	pop	r25
     3ae:	8f 91       	pop	r24
     3b0:	7f 91       	pop	r23
     3b2:	6f 91       	pop	r22
     3b4:	5f 91       	pop	r21
     3b6:	4f 91       	pop	r20
     3b8:	3f 91       	pop	r19
     3ba:	2f 91       	pop	r18
     3bc:	0f 90       	pop	r0
     3be:	0f be       	out	0x3f, r0	; 63
     3c0:	0f 90       	pop	r0
     3c2:	1f 90       	pop	r1
     3c4:	18 95       	reti

000003c6 <__vector_21>:
     3c6:	1f 92       	push	r1
     3c8:	0f 92       	push	r0
     3ca:	0f b6       	in	r0, 0x3f	; 63
     3cc:	0f 92       	push	r0
     3ce:	11 24       	eor	r1, r1
     3d0:	2f 93       	push	r18
     3d2:	8f 93       	push	r24
     3d4:	9f 93       	push	r25
     3d6:	ef 93       	push	r30
     3d8:	ff 93       	push	r31
     3da:	80 91 2a 01 	lds	r24, 0x012A	; 0x80012a <_ZZ11__vector_21E10initSensor>
     3de:	88 23       	and	r24, r24
     3e0:	09 f4       	brne	.+2      	; 0x3e4 <__vector_21+0x1e>
     3e2:	72 c0       	rjmp	.+228    	; 0x4c8 <__LOCK_REGION_LENGTH__+0xc8>
     3e4:	80 91 78 00 	lds	r24, 0x0078	; 0x800078 <__DATA_REGION_ORIGIN__+0x18>
     3e8:	20 91 79 00 	lds	r18, 0x0079	; 0x800079 <__DATA_REGION_ORIGIN__+0x19>
     3ec:	90 e0       	ldi	r25, 0x00	; 0
     3ee:	92 2b       	or	r25, r18
     3f0:	e0 91 29 01 	lds	r30, 0x0129	; 0x800129 <_ZZ11__vector_21E13currentSensor>
     3f4:	21 e0       	ldi	r18, 0x01	; 1
     3f6:	2e 0f       	add	r18, r30
     3f8:	20 93 29 01 	sts	0x0129, r18	; 0x800129 <_ZZ11__vector_21E13currentSensor>
     3fc:	f0 e0       	ldi	r31, 0x00	; 0
     3fe:	ee 0f       	add	r30, r30
     400:	ff 1f       	adc	r31, r31
     402:	e7 52       	subi	r30, 0x27	; 39
     404:	fe 4f       	sbci	r31, 0xFE	; 254
     406:	91 83       	std	Z+1, r25	; 0x01
     408:	80 83       	st	Z, r24
     40a:	26 30       	cpi	r18, 0x06	; 6
     40c:	09 f0       	breq	.+2      	; 0x410 <__LOCK_REGION_LENGTH__+0x10>
     40e:	4d c0       	rjmp	.+154    	; 0x4aa <__LOCK_REGION_LENGTH__+0xaa>
     410:	20 91 01 02 	lds	r18, 0x0201	; 0x800201 <buzzer+0xa>
     414:	22 23       	and	r18, r18
     416:	09 f4       	brne	.+2      	; 0x41a <__LOCK_REGION_LENGTH__+0x1a>
     418:	68 c0       	rjmp	.+208    	; 0x4ea <__LOCK_REGION_LENGTH__+0xea>
     41a:	81 33       	cpi	r24, 0x31	; 49
     41c:	22 e0       	ldi	r18, 0x02	; 2
     41e:	92 07       	cpc	r25, r18
     420:	08 f0       	brcs	.+2      	; 0x424 <__LOCK_REGION_LENGTH__+0x24>
     422:	5e c0       	rjmp	.+188    	; 0x4e0 <__LOCK_REGION_LENGTH__+0xe0>
     424:	62 c0       	rjmp	.+196    	; 0x4ea <__LOCK_REGION_LENGTH__+0xea>
     426:	80 91 01 02 	lds	r24, 0x0201	; 0x800201 <buzzer+0xa>
     42a:	88 23       	and	r24, r24
     42c:	09 f4       	brne	.+2      	; 0x430 <__LOCK_REGION_LENGTH__+0x30>
     42e:	43 c0       	rjmp	.+134    	; 0x4b6 <__LOCK_REGION_LENGTH__+0xb6>
     430:	e7 ef       	ldi	r30, 0xF7	; 247
     432:	f1 e0       	ldi	r31, 0x01	; 1
     434:	12 86       	std	Z+10, r1	; 0x0a
     436:	11 86       	std	Z+9, r1	; 0x09
     438:	10 86       	std	Z+8, r1	; 0x08
     43a:	e0 e8       	ldi	r30, 0x80	; 128
     43c:	f0 e0       	ldi	r31, 0x00	; 0
     43e:	10 82       	st	Z, r1
     440:	10 92 81 00 	sts	0x0081, r1	; 0x800081 <__DATA_REGION_ORIGIN__+0x21>
     444:	80 81       	ld	r24, Z
     446:	8f 7e       	andi	r24, 0xEF	; 239
     448:	80 83       	st	Z, r24
     44a:	2f c0       	rjmp	.+94     	; 0x4aa <__LOCK_REGION_LENGTH__+0xaa>
     44c:	80 33       	cpi	r24, 0x30	; 48
     44e:	92 40       	sbci	r25, 0x02	; 2
     450:	08 f4       	brcc	.+2      	; 0x454 <__LOCK_REGION_LENGTH__+0x54>
     452:	50 c0       	rjmp	.+160    	; 0x4f4 <__LOCK_REGION_LENGTH__+0xf4>
     454:	30 c0       	rjmp	.+96     	; 0x4b6 <__LOCK_REGION_LENGTH__+0xb6>
     456:	80 91 01 02 	lds	r24, 0x0201	; 0x800201 <buzzer+0xa>
     45a:	81 11       	cpse	r24, r1
     45c:	2c c0       	rjmp	.+88     	; 0x4b6 <__LOCK_REGION_LENGTH__+0xb6>
     45e:	e7 ef       	ldi	r30, 0xF7	; 247
     460:	f1 e0       	ldi	r31, 0x01	; 1
     462:	81 e0       	ldi	r24, 0x01	; 1
     464:	82 87       	std	Z+10, r24	; 0x0a
     466:	10 86       	std	Z+8, r1	; 0x08
     468:	88 ee       	ldi	r24, 0xE8	; 232
     46a:	93 e0       	ldi	r25, 0x03	; 3
     46c:	93 83       	std	Z+3, r25	; 0x03
     46e:	82 83       	std	Z+2, r24	; 0x02
     470:	84 ef       	ldi	r24, 0xF4	; 244
     472:	91 e0       	ldi	r25, 0x01	; 1
     474:	95 83       	std	Z+5, r25	; 0x05
     476:	84 83       	std	Z+4, r24	; 0x04
     478:	80 81       	ld	r24, Z
     47a:	91 81       	ldd	r25, Z+1	; 0x01
     47c:	89 2b       	or	r24, r25
     47e:	d9 f0       	breq	.+54     	; 0x4b6 <__LOCK_REGION_LENGTH__+0xb6>
     480:	81 e0       	ldi	r24, 0x01	; 1
     482:	81 87       	std	Z+9, r24	; 0x09
     484:	80 87       	std	Z+8, r24	; 0x08
     486:	88 ee       	ldi	r24, 0xE8	; 232
     488:	93 e0       	ldi	r25, 0x03	; 3
     48a:	97 83       	std	Z+7, r25	; 0x07
     48c:	86 83       	std	Z+6, r24	; 0x06
     48e:	8a e0       	ldi	r24, 0x0A	; 10
     490:	80 93 81 00 	sts	0x0081, r24	; 0x800081 <__DATA_REGION_ORIGIN__+0x21>
     494:	81 81       	ldd	r24, Z+1	; 0x01
     496:	80 93 89 00 	sts	0x0089, r24	; 0x800089 <__DATA_REGION_ORIGIN__+0x29>
     49a:	80 81       	ld	r24, Z
     49c:	80 93 88 00 	sts	0x0088, r24	; 0x800088 <__DATA_REGION_ORIGIN__+0x28>
     4a0:	e0 e8       	ldi	r30, 0x80	; 128
     4a2:	f0 e0       	ldi	r31, 0x00	; 0
     4a4:	80 81       	ld	r24, Z
     4a6:	80 61       	ori	r24, 0x10	; 16
     4a8:	80 83       	st	Z, r24
     4aa:	80 91 29 01 	lds	r24, 0x0129	; 0x800129 <_ZZ11__vector_21E13currentSensor>
     4ae:	87 30       	cpi	r24, 0x07	; 7
     4b0:	11 f4       	brne	.+4      	; 0x4b6 <__LOCK_REGION_LENGTH__+0xb6>
     4b2:	10 92 29 01 	sts	0x0129, r1	; 0x800129 <_ZZ11__vector_21E13currentSensor>
     4b6:	e0 91 29 01 	lds	r30, 0x0129	; 0x800129 <_ZZ11__vector_21E13currentSensor>
     4ba:	f0 e0       	ldi	r31, 0x00	; 0
     4bc:	e2 5e       	subi	r30, 0xE2	; 226
     4be:	fe 4f       	sbci	r31, 0xFE	; 254
     4c0:	80 81       	ld	r24, Z
     4c2:	80 64       	ori	r24, 0x40	; 64
     4c4:	80 93 7c 00 	sts	0x007C, r24	; 0x80007c <__DATA_REGION_ORIGIN__+0x1c>
     4c8:	90 91 2a 01 	lds	r25, 0x012A	; 0x80012a <_ZZ11__vector_21E10initSensor>
     4cc:	81 e0       	ldi	r24, 0x01	; 1
     4ce:	89 27       	eor	r24, r25
     4d0:	80 93 2a 01 	sts	0x012A, r24	; 0x80012a <_ZZ11__vector_21E10initSensor>
     4d4:	ea e7       	ldi	r30, 0x7A	; 122
     4d6:	f0 e0       	ldi	r31, 0x00	; 0
     4d8:	80 81       	ld	r24, Z
     4da:	80 64       	ori	r24, 0x40	; 64
     4dc:	80 83       	st	Z, r24
     4de:	0f c0       	rjmp	.+30     	; 0x4fe <__LOCK_REGION_LENGTH__+0xfe>
     4e0:	80 91 02 02 	lds	r24, 0x0202	; 0x800202 <buzzer+0xb>
     4e4:	81 11       	cpse	r24, r1
     4e6:	9f cf       	rjmp	.-194    	; 0x426 <__LOCK_REGION_LENGTH__+0x26>
     4e8:	e6 cf       	rjmp	.-52     	; 0x4b6 <__LOCK_REGION_LENGTH__+0xb6>
     4ea:	20 91 01 02 	lds	r18, 0x0201	; 0x800201 <buzzer+0xa>
     4ee:	21 11       	cpse	r18, r1
     4f0:	e2 cf       	rjmp	.-60     	; 0x4b6 <__LOCK_REGION_LENGTH__+0xb6>
     4f2:	ac cf       	rjmp	.-168    	; 0x44c <__LOCK_REGION_LENGTH__+0x4c>
     4f4:	80 91 02 02 	lds	r24, 0x0202	; 0x800202 <buzzer+0xb>
     4f8:	81 11       	cpse	r24, r1
     4fa:	ad cf       	rjmp	.-166    	; 0x456 <__LOCK_REGION_LENGTH__+0x56>
     4fc:	dc cf       	rjmp	.-72     	; 0x4b6 <__LOCK_REGION_LENGTH__+0xb6>
     4fe:	ff 91       	pop	r31
     500:	ef 91       	pop	r30
     502:	9f 91       	pop	r25
     504:	8f 91       	pop	r24
     506:	2f 91       	pop	r18
     508:	0f 90       	pop	r0
     50a:	0f be       	out	0x3f, r0	; 63
     50c:	0f 90       	pop	r0
     50e:	1f 90       	pop	r1
     510:	18 95       	reti

00000512 <_Z16resetCalibrationv>:
     512:	20 e0       	ldi	r18, 0x00	; 0
     514:	30 e0       	ldi	r19, 0x00	; 0
     516:	40 e0       	ldi	r20, 0x00	; 0
     518:	54 e0       	ldi	r21, 0x04	; 4
     51a:	c9 01       	movw	r24, r18
     51c:	88 0f       	add	r24, r24
     51e:	99 1f       	adc	r25, r25
     520:	fc 01       	movw	r30, r24
     522:	eb 53       	subi	r30, 0x3B	; 59
     524:	fe 4f       	sbci	r31, 0xFE	; 254
     526:	11 82       	std	Z+1, r1	; 0x01
     528:	10 82       	st	Z, r1
     52a:	fc 01       	movw	r30, r24
     52c:	e1 53       	subi	r30, 0x31	; 49
     52e:	fe 4f       	sbci	r31, 0xFE	; 254
     530:	51 83       	std	Z+1, r21	; 0x01
     532:	40 83       	st	Z, r20
     534:	2f 5f       	subi	r18, 0xFF	; 255
     536:	3f 4f       	sbci	r19, 0xFF	; 255
     538:	25 30       	cpi	r18, 0x05	; 5
     53a:	31 05       	cpc	r19, r1
     53c:	71 f7       	brne	.-36     	; 0x51a <_Z16resetCalibrationv+0x8>
     53e:	08 95       	ret

00000540 <_Z17calibrate_sensorsv>:
     540:	af 92       	push	r10
     542:	bf 92       	push	r11
     544:	df 92       	push	r13
     546:	ef 92       	push	r14
     548:	ff 92       	push	r15
     54a:	0f 93       	push	r16
     54c:	1f 93       	push	r17
     54e:	cf 93       	push	r28
     550:	df 93       	push	r29
     552:	cd b7       	in	r28, 0x3d	; 61
     554:	de b7       	in	r29, 0x3e	; 62
     556:	64 97       	sbiw	r28, 0x14	; 20
     558:	0f b6       	in	r0, 0x3f	; 63
     55a:	f8 94       	cli
     55c:	de bf       	out	0x3e, r29	; 62
     55e:	0f be       	out	0x3f, r0	; 63
     560:	cd bf       	out	0x3d, r28	; 61
     562:	d1 2c       	mov	r13, r1
     564:	7e 01       	movw	r14, r28
     566:	1b e0       	ldi	r17, 0x0B	; 11
     568:	e1 0e       	add	r14, r17
     56a:	f1 1c       	adc	r15, r1
     56c:	ce 01       	movw	r24, r28
     56e:	01 96       	adiw	r24, 0x01	; 1
     570:	5c 01       	movw	r10, r24
     572:	dc 01       	movw	r26, r24
     574:	b7 01       	movw	r22, r14
     576:	40 e0       	ldi	r20, 0x00	; 0
     578:	50 e0       	ldi	r21, 0x00	; 0
     57a:	f8 94       	cli
     57c:	9a 01       	movw	r18, r20
     57e:	fa 01       	movw	r30, r20
     580:	ee 0f       	add	r30, r30
     582:	ff 1f       	adc	r31, r31
     584:	e7 52       	subi	r30, 0x27	; 39
     586:	fe 4f       	sbci	r31, 0xFE	; 254
     588:	80 81       	ld	r24, Z
     58a:	91 81       	ldd	r25, Z+1	; 0x01
     58c:	81 15       	cp	r24, r1
     58e:	94 40       	sbci	r25, 0x04	; 4
     590:	69 f4       	brne	.+26     	; 0x5ac <_Z17calibrate_sensorsv+0x6c>
     592:	fa 01       	movw	r30, r20
     594:	ee 0f       	add	r30, r30
     596:	ff 1f       	adc	r31, r31
     598:	e7 52       	subi	r30, 0x27	; 39
     59a:	fe 4f       	sbci	r31, 0xFE	; 254
     59c:	78 94       	sei
     59e:	00 00       	nop
     5a0:	f8 94       	cli
     5a2:	80 81       	ld	r24, Z
     5a4:	91 81       	ldd	r25, Z+1	; 0x01
     5a6:	81 15       	cp	r24, r1
     5a8:	94 40       	sbci	r25, 0x04	; 4
     5aa:	c1 f3       	breq	.-16     	; 0x59c <_Z17calibrate_sensorsv+0x5c>
     5ac:	22 0f       	add	r18, r18
     5ae:	33 1f       	adc	r19, r19
     5b0:	f9 01       	movw	r30, r18
     5b2:	e7 52       	subi	r30, 0x27	; 39
     5b4:	fe 4f       	sbci	r31, 0xFE	; 254
     5b6:	80 81       	ld	r24, Z
     5b8:	91 81       	ldd	r25, Z+1	; 0x01
     5ba:	78 94       	sei
     5bc:	00 00       	nop
     5be:	dd 20       	and	r13, r13
     5c0:	09 f4       	brne	.+2      	; 0x5c4 <_Z17calibrate_sensorsv+0x84>
     5c2:	53 c0       	rjmp	.+166    	; 0x66a <_Z17calibrate_sensorsv+0x12a>
     5c4:	2d 91       	ld	r18, X+
     5c6:	3c 91       	ld	r19, X
     5c8:	11 97       	sbiw	r26, 0x01	; 1
     5ca:	28 17       	cp	r18, r24
     5cc:	39 07       	cpc	r19, r25
     5ce:	0c f4       	brge	.+2      	; 0x5d2 <_Z17calibrate_sensorsv+0x92>
     5d0:	48 c0       	rjmp	.+144    	; 0x662 <_Z17calibrate_sensorsv+0x122>
     5d2:	fb 01       	movw	r30, r22
     5d4:	20 81       	ld	r18, Z
     5d6:	31 81       	ldd	r19, Z+1	; 0x01
     5d8:	82 17       	cp	r24, r18
     5da:	93 07       	cpc	r25, r19
     5dc:	1c f4       	brge	.+6      	; 0x5e4 <_Z17calibrate_sensorsv+0xa4>
     5de:	fb 01       	movw	r30, r22
     5e0:	91 83       	std	Z+1, r25	; 0x01
     5e2:	80 83       	st	Z, r24
     5e4:	4f 5f       	subi	r20, 0xFF	; 255
     5e6:	5f 4f       	sbci	r21, 0xFF	; 255
     5e8:	6e 5f       	subi	r22, 0xFE	; 254
     5ea:	7f 4f       	sbci	r23, 0xFF	; 255
     5ec:	12 96       	adiw	r26, 0x02	; 2
     5ee:	45 30       	cpi	r20, 0x05	; 5
     5f0:	51 05       	cpc	r21, r1
     5f2:	09 f0       	breq	.+2      	; 0x5f6 <_Z17calibrate_sensorsv+0xb6>
     5f4:	c2 cf       	rjmp	.-124    	; 0x57a <_Z17calibrate_sensorsv+0x3a>
     5f6:	d3 94       	inc	r13
     5f8:	fa e0       	ldi	r31, 0x0A	; 10
     5fa:	df 12       	cpse	r13, r31
     5fc:	b3 cf       	rjmp	.-154    	; 0x564 <_Z17calibrate_sensorsv+0x24>
     5fe:	80 e0       	ldi	r24, 0x00	; 0
     600:	90 e0       	ldi	r25, 0x00	; 0
     602:	9c 01       	movw	r18, r24
     604:	f7 01       	movw	r30, r14
     606:	41 91       	ld	r20, Z+
     608:	51 91       	ld	r21, Z+
     60a:	7f 01       	movw	r14, r30
     60c:	fc 01       	movw	r30, r24
     60e:	ee 0f       	add	r30, r30
     610:	ff 1f       	adc	r31, r31
     612:	eb 53       	subi	r30, 0x3B	; 59
     614:	fe 4f       	sbci	r31, 0xFE	; 254
     616:	60 81       	ld	r22, Z
     618:	71 81       	ldd	r23, Z+1	; 0x01
     61a:	64 17       	cp	r22, r20
     61c:	75 07       	cpc	r23, r21
     61e:	3c f4       	brge	.+14     	; 0x62e <_Z17calibrate_sensorsv+0xee>
     620:	fc 01       	movw	r30, r24
     622:	ee 0f       	add	r30, r30
     624:	ff 1f       	adc	r31, r31
     626:	eb 53       	subi	r30, 0x3B	; 59
     628:	fe 4f       	sbci	r31, 0xFE	; 254
     62a:	51 83       	std	Z+1, r21	; 0x01
     62c:	40 83       	st	Z, r20
     62e:	f5 01       	movw	r30, r10
     630:	41 91       	ld	r20, Z+
     632:	51 91       	ld	r21, Z+
     634:	5f 01       	movw	r10, r30
     636:	f9 01       	movw	r30, r18
     638:	ee 0f       	add	r30, r30
     63a:	ff 1f       	adc	r31, r31
     63c:	e1 53       	subi	r30, 0x31	; 49
     63e:	fe 4f       	sbci	r31, 0xFE	; 254
     640:	60 81       	ld	r22, Z
     642:	71 81       	ldd	r23, Z+1	; 0x01
     644:	46 17       	cp	r20, r22
     646:	57 07       	cpc	r21, r23
     648:	3c f4       	brge	.+14     	; 0x658 <_Z17calibrate_sensorsv+0x118>
     64a:	22 0f       	add	r18, r18
     64c:	33 1f       	adc	r19, r19
     64e:	f9 01       	movw	r30, r18
     650:	e1 53       	subi	r30, 0x31	; 49
     652:	fe 4f       	sbci	r31, 0xFE	; 254
     654:	51 83       	std	Z+1, r21	; 0x01
     656:	40 83       	st	Z, r20
     658:	01 96       	adiw	r24, 0x01	; 1
     65a:	85 30       	cpi	r24, 0x05	; 5
     65c:	91 05       	cpc	r25, r1
     65e:	89 f6       	brne	.-94     	; 0x602 <_Z17calibrate_sensorsv+0xc2>
     660:	08 c0       	rjmp	.+16     	; 0x672 <_Z17calibrate_sensorsv+0x132>
     662:	11 96       	adiw	r26, 0x01	; 1
     664:	9c 93       	st	X, r25
     666:	8e 93       	st	-X, r24
     668:	b4 cf       	rjmp	.-152    	; 0x5d2 <_Z17calibrate_sensorsv+0x92>
     66a:	11 96       	adiw	r26, 0x01	; 1
     66c:	9c 93       	st	X, r25
     66e:	8e 93       	st	-X, r24
     670:	b6 cf       	rjmp	.-148    	; 0x5de <_Z17calibrate_sensorsv+0x9e>
     672:	64 96       	adiw	r28, 0x14	; 20
     674:	0f b6       	in	r0, 0x3f	; 63
     676:	f8 94       	cli
     678:	de bf       	out	0x3e, r29	; 62
     67a:	0f be       	out	0x3f, r0	; 63
     67c:	cd bf       	out	0x3d, r28	; 61
     67e:	df 91       	pop	r29
     680:	cf 91       	pop	r28
     682:	1f 91       	pop	r17
     684:	0f 91       	pop	r16
     686:	ff 90       	pop	r15
     688:	ef 90       	pop	r14
     68a:	df 90       	pop	r13
     68c:	bf 90       	pop	r11
     68e:	af 90       	pop	r10
     690:	08 95       	ret

00000692 <_Z9cal_roundv>:
     692:	1f 93       	push	r17
     694:	cf 93       	push	r28
     696:	df 93       	push	r29
     698:	0e 94 89 02 	call	0x512	; 0x512 <_Z16resetCalibrationv>
     69c:	1c ee       	ldi	r17, 0xEC	; 236
     69e:	c8 ee       	ldi	r28, 0xE8	; 232
     6a0:	d3 e0       	ldi	r29, 0x03	; 3
     6a2:	18 32       	cpi	r17, 0x28	; 40
     6a4:	48 f0       	brcs	.+18     	; 0x6b8 <_Z9cal_roundv+0x26>
     6a6:	88 e2       	ldi	r24, 0x28	; 40
     6a8:	90 e0       	ldi	r25, 0x00	; 0
     6aa:	0e 94 cd 00 	call	0x19a	; 0x19a <_Z12setLeftMotori>
     6ae:	88 ed       	ldi	r24, 0xD8	; 216
     6b0:	9f ef       	ldi	r25, 0xFF	; 255
     6b2:	0e 94 be 00 	call	0x17c	; 0x17c <_Z13setRightMotori>
     6b6:	08 c0       	rjmp	.+16     	; 0x6c8 <_Z9cal_roundv+0x36>
     6b8:	88 ed       	ldi	r24, 0xD8	; 216
     6ba:	9f ef       	ldi	r25, 0xFF	; 255
     6bc:	0e 94 cd 00 	call	0x19a	; 0x19a <_Z12setLeftMotori>
     6c0:	88 e2       	ldi	r24, 0x28	; 40
     6c2:	90 e0       	ldi	r25, 0x00	; 0
     6c4:	0e 94 be 00 	call	0x17c	; 0x17c <_Z13setRightMotori>
     6c8:	0e 94 a0 02 	call	0x540	; 0x540 <_Z17calibrate_sensorsv>
     6cc:	84 e1       	ldi	r24, 0x14	; 20
     6ce:	90 e0       	ldi	r25, 0x00	; 0
     6d0:	fe 01       	movw	r30, r28
     6d2:	6f 93       	push	r22
     6d4:	64 e0       	ldi	r22, 0x04	; 4
     6d6:	6a 95       	dec	r22
     6d8:	f1 f7       	brne	.-4      	; 0x6d6 <_Z9cal_roundv+0x44>
     6da:	6f 91       	pop	r22
     6dc:	31 97       	sbiw	r30, 0x01	; 1
     6de:	c9 f7       	brne	.-14     	; 0x6d2 <_Z9cal_roundv+0x40>
     6e0:	01 97       	sbiw	r24, 0x01	; 1
     6e2:	b1 f7       	brne	.-20     	; 0x6d0 <_Z9cal_roundv+0x3e>
     6e4:	1f 5f       	subi	r17, 0xFF	; 255
     6e6:	1c 33       	cpi	r17, 0x3C	; 60
     6e8:	e1 f6       	brne	.-72     	; 0x6a2 <_Z9cal_roundv+0x10>
     6ea:	80 e0       	ldi	r24, 0x00	; 0
     6ec:	90 e0       	ldi	r25, 0x00	; 0
     6ee:	0e 94 cd 00 	call	0x19a	; 0x19a <_Z12setLeftMotori>
     6f2:	80 e0       	ldi	r24, 0x00	; 0
     6f4:	90 e0       	ldi	r25, 0x00	; 0
     6f6:	0e 94 be 00 	call	0x17c	; 0x17c <_Z13setRightMotori>
     6fa:	df 91       	pop	r29
     6fc:	cf 91       	pop	r28
     6fe:	1f 91       	pop	r17
     700:	08 95       	ret

00000702 <_Z10getLinePosb>:
     702:	3f 92       	push	r3
     704:	4f 92       	push	r4
     706:	5f 92       	push	r5
     708:	6f 92       	push	r6
     70a:	7f 92       	push	r7
     70c:	8f 92       	push	r8
     70e:	9f 92       	push	r9
     710:	af 92       	push	r10
     712:	bf 92       	push	r11
     714:	cf 92       	push	r12
     716:	df 92       	push	r13
     718:	ef 92       	push	r14
     71a:	ff 92       	push	r15
     71c:	0f 93       	push	r16
     71e:	1f 93       	push	r17
     720:	cf 93       	push	r28
     722:	df 93       	push	r29
     724:	58 2e       	mov	r5, r24
     726:	c1 2c       	mov	r12, r1
     728:	d1 2c       	mov	r13, r1
     72a:	76 01       	movw	r14, r12
     72c:	c0 e0       	ldi	r28, 0x00	; 0
     72e:	d0 e0       	ldi	r29, 0x00	; 0
     730:	61 2c       	mov	r6, r1
     732:	71 2c       	mov	r7, r1
     734:	81 2c       	mov	r8, r1
     736:	91 2c       	mov	r9, r1
     738:	54 01       	movw	r10, r8
     73a:	41 2c       	mov	r4, r1
     73c:	00 e0       	ldi	r16, 0x00	; 0
     73e:	14 e0       	ldi	r17, 0x04	; 4
     740:	33 24       	eor	r3, r3
     742:	33 94       	inc	r3
     744:	f8 94       	cli
     746:	be 01       	movw	r22, r28
     748:	fe 01       	movw	r30, r28
     74a:	ee 0f       	add	r30, r30
     74c:	ff 1f       	adc	r31, r31
     74e:	e7 52       	subi	r30, 0x27	; 39
     750:	fe 4f       	sbci	r31, 0xFE	; 254
     752:	80 81       	ld	r24, Z
     754:	91 81       	ldd	r25, Z+1	; 0x01
     756:	81 15       	cp	r24, r1
     758:	94 40       	sbci	r25, 0x04	; 4
     75a:	69 f4       	brne	.+26     	; 0x776 <_Z10getLinePosb+0x74>
     75c:	fe 01       	movw	r30, r28
     75e:	ee 0f       	add	r30, r30
     760:	ff 1f       	adc	r31, r31
     762:	e7 52       	subi	r30, 0x27	; 39
     764:	fe 4f       	sbci	r31, 0xFE	; 254
     766:	78 94       	sei
     768:	00 00       	nop
     76a:	f8 94       	cli
     76c:	80 81       	ld	r24, Z
     76e:	91 81       	ldd	r25, Z+1	; 0x01
     770:	81 15       	cp	r24, r1
     772:	94 40       	sbci	r25, 0x04	; 4
     774:	c1 f3       	breq	.-16     	; 0x766 <_Z10getLinePosb+0x64>
     776:	cb 01       	movw	r24, r22
     778:	88 0f       	add	r24, r24
     77a:	99 1f       	adc	r25, r25
     77c:	fc 01       	movw	r30, r24
     77e:	e7 52       	subi	r30, 0x27	; 39
     780:	fe 4f       	sbci	r31, 0xFE	; 254
     782:	20 81       	ld	r18, Z
     784:	31 81       	ldd	r19, Z+1	; 0x01
     786:	78 94       	sei
     788:	00 00       	nop
     78a:	fc 01       	movw	r30, r24
     78c:	eb 53       	subi	r30, 0x3B	; 59
     78e:	fe 4f       	sbci	r31, 0xFE	; 254
     790:	40 81       	ld	r20, Z
     792:	51 81       	ldd	r21, Z+1	; 0x01
     794:	fc 01       	movw	r30, r24
     796:	e1 53       	subi	r30, 0x31	; 49
     798:	fe 4f       	sbci	r31, 0xFE	; 254
     79a:	80 81       	ld	r24, Z
     79c:	91 81       	ldd	r25, Z+1	; 0x01
     79e:	48 1b       	sub	r20, r24
     7a0:	59 0b       	sbc	r21, r25
     7a2:	a1 f0       	breq	.+40     	; 0x7cc <_Z10getLinePosb+0xca>
     7a4:	66 0f       	add	r22, r22
     7a6:	77 1f       	adc	r23, r23
     7a8:	fb 01       	movw	r30, r22
     7aa:	e1 53       	subi	r30, 0x31	; 49
     7ac:	fe 4f       	sbci	r31, 0xFE	; 254
     7ae:	80 81       	ld	r24, Z
     7b0:	91 81       	ldd	r25, Z+1	; 0x01
     7b2:	d9 01       	movw	r26, r18
     7b4:	a8 1b       	sub	r26, r24
     7b6:	b9 0b       	sbc	r27, r25
     7b8:	28 ee       	ldi	r18, 0xE8	; 232
     7ba:	33 e0       	ldi	r19, 0x03	; 3
     7bc:	0e 94 95 10 	call	0x212a	; 0x212a <__usmulhisi3>
     7c0:	9a 01       	movw	r18, r20
     7c2:	55 0f       	add	r21, r21
     7c4:	44 0b       	sbc	r20, r20
     7c6:	55 0b       	sbc	r21, r21
     7c8:	0e 94 67 10 	call	0x20ce	; 0x20ce <__divmodsi4>
     7cc:	21 30       	cpi	r18, 0x01	; 1
     7ce:	84 e0       	ldi	r24, 0x04	; 4
     7d0:	38 07       	cpc	r19, r24
     7d2:	0c f0       	brlt	.+2      	; 0x7d6 <_Z10getLinePosb+0xd4>
     7d4:	98 01       	movw	r18, r16
     7d6:	f9 01       	movw	r30, r18
     7d8:	ff 23       	and	r31, r31
     7da:	14 f4       	brge	.+4      	; 0x7e0 <_Z10getLinePosb+0xde>
     7dc:	e0 e0       	ldi	r30, 0x00	; 0
     7de:	f0 e0       	ldi	r31, 0x00	; 0
     7e0:	55 20       	and	r5, r5
     7e2:	21 f0       	breq	.+8      	; 0x7ec <_Z10getLinePosb+0xea>
     7e4:	c8 01       	movw	r24, r16
     7e6:	8e 1b       	sub	r24, r30
     7e8:	9f 0b       	sbc	r25, r31
     7ea:	fc 01       	movw	r30, r24
     7ec:	e9 3c       	cpi	r30, 0xC9	; 201
     7ee:	f1 05       	cpc	r31, r1
     7f0:	0c f0       	brlt	.+2      	; 0x7f4 <_Z10getLinePosb+0xf2>
     7f2:	43 2c       	mov	r4, r3
     7f4:	e3 33       	cpi	r30, 0x33	; 51
     7f6:	f1 05       	cpc	r31, r1
     7f8:	5c f0       	brlt	.+22     	; 0x810 <_Z10getLinePosb+0x10e>
     7fa:	df 01       	movw	r26, r30
     7fc:	a7 01       	movw	r20, r14
     7fe:	96 01       	movw	r18, r12
     800:	0e 94 a7 10 	call	0x214e	; 0x214e <__mulshisi3>
     804:	86 0e       	add	r8, r22
     806:	97 1e       	adc	r9, r23
     808:	a8 1e       	adc	r10, r24
     80a:	b9 1e       	adc	r11, r25
     80c:	6e 0e       	add	r6, r30
     80e:	7f 1e       	adc	r7, r31
     810:	21 96       	adiw	r28, 0x01	; 1
     812:	94 e0       	ldi	r25, 0x04	; 4
     814:	d9 0e       	add	r13, r25
     816:	e1 1c       	adc	r14, r1
     818:	f1 1c       	adc	r15, r1
     81a:	c5 30       	cpi	r28, 0x05	; 5
     81c:	d1 05       	cpc	r29, r1
     81e:	09 f0       	breq	.+2      	; 0x822 <_Z10getLinePosb+0x120>
     820:	91 cf       	rjmp	.-222    	; 0x744 <_Z10getLinePosb+0x42>
     822:	41 10       	cpse	r4, r1
     824:	0a c0       	rjmp	.+20     	; 0x83a <_Z10getLinePosb+0x138>
     826:	80 91 27 01 	lds	r24, 0x0127	; 0x800127 <_ZZ10getLinePosbE10last_value>
     82a:	90 91 28 01 	lds	r25, 0x0128	; 0x800128 <_ZZ10getLinePosbE10last_value+0x1>
     82e:	81 15       	cp	r24, r1
     830:	98 40       	sbci	r25, 0x08	; 8
     832:	84 f0       	brlt	.+32     	; 0x854 <_Z10getLinePosb+0x152>
     834:	80 e0       	ldi	r24, 0x00	; 0
     836:	90 e1       	ldi	r25, 0x10	; 16
     838:	0f c0       	rjmp	.+30     	; 0x858 <_Z10getLinePosb+0x156>
     83a:	93 01       	movw	r18, r6
     83c:	40 e0       	ldi	r20, 0x00	; 0
     83e:	50 e0       	ldi	r21, 0x00	; 0
     840:	c5 01       	movw	r24, r10
     842:	b4 01       	movw	r22, r8
     844:	0e 94 45 10 	call	0x208a	; 0x208a <__udivmodsi4>
     848:	c9 01       	movw	r24, r18
     84a:	30 93 28 01 	sts	0x0128, r19	; 0x800128 <_ZZ10getLinePosbE10last_value+0x1>
     84e:	20 93 27 01 	sts	0x0127, r18	; 0x800127 <_ZZ10getLinePosbE10last_value>
     852:	02 c0       	rjmp	.+4      	; 0x858 <_Z10getLinePosb+0x156>
     854:	80 e0       	ldi	r24, 0x00	; 0
     856:	90 e0       	ldi	r25, 0x00	; 0
     858:	df 91       	pop	r29
     85a:	cf 91       	pop	r28
     85c:	1f 91       	pop	r17
     85e:	0f 91       	pop	r16
     860:	ff 90       	pop	r15
     862:	ef 90       	pop	r14
     864:	df 90       	pop	r13
     866:	cf 90       	pop	r12
     868:	bf 90       	pop	r11
     86a:	af 90       	pop	r10
     86c:	9f 90       	pop	r9
     86e:	8f 90       	pop	r8
     870:	7f 90       	pop	r7
     872:	6f 90       	pop	r6
     874:	5f 90       	pop	r5
     876:	4f 90       	pop	r4
     878:	3f 90       	pop	r3
     87a:	08 95       	ret

0000087c <_Z12init_sensorsv>:
     87c:	8f e3       	ldi	r24, 0x3F	; 63
     87e:	80 93 7e 00 	sts	0x007E, r24	; 0x80007e <__DATA_REGION_ORIGIN__+0x1e>
     882:	8f ed       	ldi	r24, 0xDF	; 223
     884:	80 93 7a 00 	sts	0x007A, r24	; 0x80007a <__DATA_REGION_ORIGIN__+0x1a>
     888:	10 92 7b 00 	sts	0x007B, r1	; 0x80007b <__DATA_REGION_ORIGIN__+0x1b>
     88c:	80 e4       	ldi	r24, 0x40	; 64
     88e:	80 93 7c 00 	sts	0x007C, r24	; 0x80007c <__DATA_REGION_ORIGIN__+0x1c>
     892:	88 b1       	in	r24, 0x08	; 8
     894:	8f 63       	ori	r24, 0x3F	; 63
     896:	88 b9       	out	0x08, r24	; 8
     898:	e9 ed       	ldi	r30, 0xD9	; 217
     89a:	f1 e0       	ldi	r31, 0x01	; 1
     89c:	80 e0       	ldi	r24, 0x00	; 0
     89e:	94 e0       	ldi	r25, 0x04	; 4
     8a0:	91 83       	std	Z+1, r25	; 0x01
     8a2:	80 83       	st	Z, r24
     8a4:	93 83       	std	Z+3, r25	; 0x03
     8a6:	82 83       	std	Z+2, r24	; 0x02
     8a8:	95 83       	std	Z+5, r25	; 0x05
     8aa:	84 83       	std	Z+4, r24	; 0x04
     8ac:	97 83       	std	Z+7, r25	; 0x07
     8ae:	86 83       	std	Z+6, r24	; 0x06
     8b0:	91 87       	std	Z+9, r25	; 0x09
     8b2:	80 87       	std	Z+8, r24	; 0x08
     8b4:	93 87       	std	Z+11, r25	; 0x0b
     8b6:	82 87       	std	Z+10, r24	; 0x0a
     8b8:	95 87       	std	Z+13, r25	; 0x0d
     8ba:	84 87       	std	Z+12, r24	; 0x0c
     8bc:	0e 94 89 02 	call	0x512	; 0x512 <_Z16resetCalibrationv>
     8c0:	08 95       	ret

000008c2 <_ZN6detail7Display9printToXYEPKchh>:
     8c2:	8f 92       	push	r8
     8c4:	9f 92       	push	r9
     8c6:	bf 92       	push	r11
     8c8:	cf 92       	push	r12
     8ca:	df 92       	push	r13
     8cc:	ef 92       	push	r14
     8ce:	ff 92       	push	r15
     8d0:	0f 93       	push	r16
     8d2:	1f 93       	push	r17
     8d4:	cf 93       	push	r28
     8d6:	df 93       	push	r29
     8d8:	00 d0       	rcall	.+0      	; 0x8da <_ZN6detail7Display9printToXYEPKchh+0x18>
     8da:	00 d0       	rcall	.+0      	; 0x8dc <_ZN6detail7Display9printToXYEPKchh+0x1a>
     8dc:	cd b7       	in	r28, 0x3d	; 61
     8de:	de b7       	in	r29, 0x3e	; 62
     8e0:	80 e8       	ldi	r24, 0x80	; 128
     8e2:	89 83       	std	Y+1, r24	; 0x01
     8e4:	80 ec       	ldi	r24, 0xC0	; 192
     8e6:	8a 83       	std	Y+2, r24	; 0x02
     8e8:	84 e9       	ldi	r24, 0x94	; 148
     8ea:	8b 83       	std	Y+3, r24	; 0x03
     8ec:	84 ed       	ldi	r24, 0xD4	; 212
     8ee:	8c 83       	std	Y+4, r24	; 0x04
     8f0:	fe 01       	movw	r30, r28
     8f2:	e2 0f       	add	r30, r18
     8f4:	f1 1d       	adc	r31, r1
     8f6:	81 81       	ldd	r24, Z+1	; 0x01
     8f8:	48 0f       	add	r20, r24
     8fa:	ba b0       	in	r11, 0x0a	; 10
     8fc:	57 98       	cbi	0x0a, 7	; 10
     8fe:	5a 98       	cbi	0x0b, 2	; 11
     900:	28 9a       	sbi	0x05, 0	; 5
     902:	24 ec       	ldi	r18, 0xC4	; 196
     904:	39 e0       	ldi	r19, 0x09	; 9
     906:	81 e0       	ldi	r24, 0x01	; 1
     908:	90 e0       	ldi	r25, 0x00	; 0
     90a:	fc 01       	movw	r30, r24
     90c:	6f 93       	push	r22
     90e:	64 e0       	ldi	r22, 0x04	; 4
     910:	6a 95       	dec	r22
     912:	f1 f7       	brne	.-4      	; 0x910 <__stack+0x11>
     914:	6f 91       	pop	r22
     916:	31 97       	sbiw	r30, 0x01	; 1
     918:	c9 f7       	brne	.-14     	; 0x90c <__stack+0xd>
     91a:	5c 9a       	sbi	0x0b, 4	; 11
     91c:	fc 01       	movw	r30, r24
     91e:	6f 93       	push	r22
     920:	64 e0       	ldi	r22, 0x04	; 4
     922:	6a 95       	dec	r22
     924:	f1 f7       	brne	.-4      	; 0x922 <__stack+0x23>
     926:	6f 91       	pop	r22
     928:	31 97       	sbiw	r30, 0x01	; 1
     92a:	c9 f7       	brne	.-14     	; 0x91e <__stack+0x1f>
     92c:	59 b1       	in	r21, 0x09	; 9
     92e:	5c 98       	cbi	0x0b, 4	; 11
     930:	fc 01       	movw	r30, r24
     932:	6f 93       	push	r22
     934:	64 e0       	ldi	r22, 0x04	; 4
     936:	6a 95       	dec	r22
     938:	f1 f7       	brne	.-4      	; 0x936 <__stack+0x37>
     93a:	6f 91       	pop	r22
     93c:	31 97       	sbiw	r30, 0x01	; 1
     93e:	c9 f7       	brne	.-14     	; 0x932 <__stack+0x33>
     940:	5c 9a       	sbi	0x0b, 4	; 11
     942:	fc 01       	movw	r30, r24
     944:	6f 93       	push	r22
     946:	64 e0       	ldi	r22, 0x04	; 4
     948:	6a 95       	dec	r22
     94a:	f1 f7       	brne	.-4      	; 0x948 <__stack+0x49>
     94c:	6f 91       	pop	r22
     94e:	31 97       	sbiw	r30, 0x01	; 1
     950:	c9 f7       	brne	.-14     	; 0x944 <__stack+0x45>
     952:	5c 98       	cbi	0x0b, 4	; 11
     954:	55 23       	and	r21, r21
     956:	24 f4       	brge	.+8      	; 0x960 <__stack+0x61>
     958:	21 50       	subi	r18, 0x01	; 1
     95a:	31 09       	sbc	r19, r1
     95c:	09 f0       	breq	.+2      	; 0x960 <__stack+0x61>
     95e:	d5 cf       	rjmp	.-86     	; 0x90a <__stack+0xb>
     960:	ba b8       	out	0x0a, r11	; 10
     962:	34 b1       	in	r19, 0x04	; 4
     964:	25 b1       	in	r18, 0x05	; 5
     966:	aa b1       	in	r26, 0x0a	; 10
     968:	5b b1       	in	r21, 0x0b	; 11
     96a:	28 98       	cbi	0x05, 0	; 5
     96c:	5a 98       	cbi	0x0b, 2	; 11
     96e:	84 b1       	in	r24, 0x04	; 4
     970:	82 63       	ori	r24, 0x32	; 50
     972:	84 b9       	out	0x04, r24	; 4
     974:	57 9a       	sbi	0x0a, 7	; 10
     976:	84 2f       	mov	r24, r20
     978:	90 e0       	ldi	r25, 0x00	; 0
     97a:	95 95       	asr	r25
     97c:	87 95       	ror	r24
     97e:	95 95       	asr	r25
     980:	87 95       	ror	r24
     982:	95 95       	asr	r25
     984:	87 95       	ror	r24
     986:	95 95       	asr	r25
     988:	87 95       	ror	r24
     98a:	95 b1       	in	r25, 0x05	; 5
     98c:	80 fb       	bst	r24, 0
     98e:	cc 24       	eor	r12, r12
     990:	c0 f8       	bld	r12, 0
     992:	d1 2c       	mov	r13, r1
     994:	cc 0c       	add	r12, r12
     996:	dd 1c       	adc	r13, r13
     998:	f8 2f       	mov	r31, r24
     99a:	f6 70       	andi	r31, 0x06	; 6
     99c:	ff 0f       	add	r31, r31
     99e:	ff 0f       	add	r31, r31
     9a0:	ff 0f       	add	r31, r31
     9a2:	cf 2a       	or	r12, r31
     9a4:	9d 7c       	andi	r25, 0xCD	; 205
     9a6:	9c 29       	or	r25, r12
     9a8:	95 b9       	out	0x05, r25	; 5
     9aa:	9b b1       	in	r25, 0x0b	; 11
     9ac:	88 70       	andi	r24, 0x08	; 8
     9ae:	82 95       	swap	r24
     9b0:	80 7f       	andi	r24, 0xF0	; 240
     9b2:	9f 77       	andi	r25, 0x7F	; 127
     9b4:	89 2b       	or	r24, r25
     9b6:	8b b9       	out	0x0b, r24	; 11
     9b8:	5c 9a       	sbi	0x0b, 4	; 11
     9ba:	81 e0       	ldi	r24, 0x01	; 1
     9bc:	90 e0       	ldi	r25, 0x00	; 0
     9be:	6c 01       	movw	r12, r24
     9c0:	fc 01       	movw	r30, r24
     9c2:	6f 93       	push	r22
     9c4:	64 e0       	ldi	r22, 0x04	; 4
     9c6:	6a 95       	dec	r22
     9c8:	f1 f7       	brne	.-4      	; 0x9c6 <__stack+0xc7>
     9ca:	6f 91       	pop	r22
     9cc:	31 97       	sbiw	r30, 0x01	; 1
     9ce:	c9 f7       	brne	.-14     	; 0x9c2 <__stack+0xc3>
     9d0:	5c 98       	cbi	0x0b, 4	; 11
     9d2:	fc 01       	movw	r30, r24
     9d4:	6f 93       	push	r22
     9d6:	64 e0       	ldi	r22, 0x04	; 4
     9d8:	6a 95       	dec	r22
     9da:	f1 f7       	brne	.-4      	; 0x9d8 <__stack+0xd9>
     9dc:	6f 91       	pop	r22
     9de:	31 97       	sbiw	r30, 0x01	; 1
     9e0:	c9 f7       	brne	.-14     	; 0x9d4 <__stack+0xd5>
     9e2:	f5 b1       	in	r31, 0x05	; 5
     9e4:	40 fb       	bst	r20, 0
     9e6:	ee 24       	eor	r14, r14
     9e8:	e0 f8       	bld	r14, 0
     9ea:	f1 2c       	mov	r15, r1
     9ec:	ee 0c       	add	r14, r14
     9ee:	ff 1c       	adc	r15, r15
     9f0:	b4 2f       	mov	r27, r20
     9f2:	b6 70       	andi	r27, 0x06	; 6
     9f4:	fb 2e       	mov	r15, r27
     9f6:	ff 0c       	add	r15, r15
     9f8:	ff 0c       	add	r15, r15
     9fa:	ff 0c       	add	r15, r15
     9fc:	ef 28       	or	r14, r15
     9fe:	fd 7c       	andi	r31, 0xCD	; 205
     a00:	ef 2a       	or	r14, r31
     a02:	e5 b8       	out	0x05, r14	; 5
     a04:	fb b1       	in	r31, 0x0b	; 11
     a06:	48 70       	andi	r20, 0x08	; 8
     a08:	42 95       	swap	r20
     a0a:	40 7f       	andi	r20, 0xF0	; 240
     a0c:	ff 77       	andi	r31, 0x7F	; 127
     a0e:	4f 2b       	or	r20, r31
     a10:	4b b9       	out	0x0b, r20	; 11
     a12:	5c 9a       	sbi	0x0b, 4	; 11
     a14:	f6 01       	movw	r30, r12
     a16:	6f 93       	push	r22
     a18:	64 e0       	ldi	r22, 0x04	; 4
     a1a:	6a 95       	dec	r22
     a1c:	f1 f7       	brne	.-4      	; 0xa1a <__stack+0x11b>
     a1e:	6f 91       	pop	r22
     a20:	31 97       	sbiw	r30, 0x01	; 1
     a22:	c9 f7       	brne	.-14     	; 0xa16 <__stack+0x117>
     a24:	5c 98       	cbi	0x0b, 4	; 11
     a26:	6f 93       	push	r22
     a28:	64 e0       	ldi	r22, 0x04	; 4
     a2a:	6a 95       	dec	r22
     a2c:	f1 f7       	brne	.-4      	; 0xa2a <__stack+0x12b>
     a2e:	6f 91       	pop	r22
     a30:	01 97       	sbiw	r24, 0x01	; 1
     a32:	c9 f7       	brne	.-14     	; 0xa26 <__stack+0x127>
     a34:	aa b9       	out	0x0a, r26	; 10
     a36:	5b b9       	out	0x0b, r21	; 11
     a38:	34 b9       	out	0x04, r19	; 4
     a3a:	25 b9       	out	0x05, r18	; 5
     a3c:	db 01       	movw	r26, r22
     a3e:	5c 91       	ld	r21, X
     a40:	55 23       	and	r21, r21
     a42:	09 f4       	brne	.+2      	; 0xa46 <__stack+0x147>
     a44:	a6 c0       	rjmp	.+332    	; 0xb92 <__stack+0x293>
     a46:	6f 5f       	subi	r22, 0xFF	; 255
     a48:	7f 4f       	sbci	r23, 0xFF	; 255
     a4a:	81 e0       	ldi	r24, 0x01	; 1
     a4c:	90 e0       	ldi	r25, 0x00	; 0
     a4e:	fa b0       	in	r15, 0x0a	; 10
     a50:	57 98       	cbi	0x0a, 7	; 10
     a52:	5a 98       	cbi	0x0b, 2	; 11
     a54:	28 9a       	sbi	0x05, 0	; 5
     a56:	24 ec       	ldi	r18, 0xC4	; 196
     a58:	39 e0       	ldi	r19, 0x09	; 9
     a5a:	fc 01       	movw	r30, r24
     a5c:	6f 93       	push	r22
     a5e:	64 e0       	ldi	r22, 0x04	; 4
     a60:	6a 95       	dec	r22
     a62:	f1 f7       	brne	.-4      	; 0xa60 <__stack+0x161>
     a64:	6f 91       	pop	r22
     a66:	31 97       	sbiw	r30, 0x01	; 1
     a68:	c9 f7       	brne	.-14     	; 0xa5c <__stack+0x15d>
     a6a:	5c 9a       	sbi	0x0b, 4	; 11
     a6c:	fc 01       	movw	r30, r24
     a6e:	6f 93       	push	r22
     a70:	64 e0       	ldi	r22, 0x04	; 4
     a72:	6a 95       	dec	r22
     a74:	f1 f7       	brne	.-4      	; 0xa72 <__stack+0x173>
     a76:	6f 91       	pop	r22
     a78:	31 97       	sbiw	r30, 0x01	; 1
     a7a:	c9 f7       	brne	.-14     	; 0xa6e <__stack+0x16f>
     a7c:	49 b1       	in	r20, 0x09	; 9
     a7e:	5c 98       	cbi	0x0b, 4	; 11
     a80:	fc 01       	movw	r30, r24
     a82:	6f 93       	push	r22
     a84:	64 e0       	ldi	r22, 0x04	; 4
     a86:	6a 95       	dec	r22
     a88:	f1 f7       	brne	.-4      	; 0xa86 <__stack+0x187>
     a8a:	6f 91       	pop	r22
     a8c:	31 97       	sbiw	r30, 0x01	; 1
     a8e:	c9 f7       	brne	.-14     	; 0xa82 <__stack+0x183>
     a90:	5c 9a       	sbi	0x0b, 4	; 11
     a92:	fc 01       	movw	r30, r24
     a94:	6f 93       	push	r22
     a96:	64 e0       	ldi	r22, 0x04	; 4
     a98:	6a 95       	dec	r22
     a9a:	f1 f7       	brne	.-4      	; 0xa98 <__stack+0x199>
     a9c:	6f 91       	pop	r22
     a9e:	31 97       	sbiw	r30, 0x01	; 1
     aa0:	c9 f7       	brne	.-14     	; 0xa94 <__stack+0x195>
     aa2:	5c 98       	cbi	0x0b, 4	; 11
     aa4:	44 23       	and	r20, r20
     aa6:	24 f4       	brge	.+8      	; 0xab0 <__stack+0x1b1>
     aa8:	21 50       	subi	r18, 0x01	; 1
     aaa:	31 09       	sbc	r19, r1
     aac:	09 f0       	breq	.+2      	; 0xab0 <__stack+0x1b1>
     aae:	d5 cf       	rjmp	.-86     	; 0xa5a <__stack+0x15b>
     ab0:	fa b8       	out	0x0a, r15	; 10
     ab2:	f4 b1       	in	r31, 0x04	; 4
     ab4:	e5 b1       	in	r30, 0x05	; 5
     ab6:	ea b0       	in	r14, 0x0a	; 10
     ab8:	fb b0       	in	r15, 0x0b	; 11
     aba:	28 98       	cbi	0x05, 0	; 5
     abc:	5a 9a       	sbi	0x0b, 2	; 11
     abe:	24 b1       	in	r18, 0x04	; 4
     ac0:	22 63       	ori	r18, 0x32	; 50
     ac2:	24 b9       	out	0x04, r18	; 4
     ac4:	57 9a       	sbi	0x0a, 7	; 10
     ac6:	25 2f       	mov	r18, r21
     ac8:	30 e0       	ldi	r19, 0x00	; 0
     aca:	35 95       	asr	r19
     acc:	27 95       	ror	r18
     ace:	35 95       	asr	r19
     ad0:	27 95       	ror	r18
     ad2:	35 95       	asr	r19
     ad4:	27 95       	ror	r18
     ad6:	35 95       	asr	r19
     ad8:	27 95       	ror	r18
     ada:	45 b1       	in	r20, 0x05	; 5
     adc:	20 fb       	bst	r18, 0
     ade:	88 24       	eor	r8, r8
     ae0:	80 f8       	bld	r8, 0
     ae2:	91 2c       	mov	r9, r1
     ae4:	64 01       	movw	r12, r8
     ae6:	cc 0c       	add	r12, r12
     ae8:	dd 1c       	adc	r13, r13
     aea:	32 2f       	mov	r19, r18
     aec:	36 70       	andi	r19, 0x06	; 6
     aee:	33 0f       	add	r19, r19
     af0:	33 0f       	add	r19, r19
     af2:	33 0f       	add	r19, r19
     af4:	3c 29       	or	r19, r12
     af6:	4d 7c       	andi	r20, 0xCD	; 205
     af8:	34 2b       	or	r19, r20
     afa:	35 b9       	out	0x05, r19	; 5
     afc:	3b b1       	in	r19, 0x0b	; 11
     afe:	28 70       	andi	r18, 0x08	; 8
     b00:	22 95       	swap	r18
     b02:	20 7f       	andi	r18, 0xF0	; 240
     b04:	3f 77       	andi	r19, 0x7F	; 127
     b06:	23 2b       	or	r18, r19
     b08:	2b b9       	out	0x0b, r18	; 11
     b0a:	5c 9a       	sbi	0x0b, 4	; 11
     b0c:	dc 01       	movw	r26, r24
     b0e:	6f 93       	push	r22
     b10:	64 e0       	ldi	r22, 0x04	; 4
     b12:	6a 95       	dec	r22
     b14:	f1 f7       	brne	.-4      	; 0xb12 <__stack+0x213>
     b16:	6f 91       	pop	r22
     b18:	11 97       	sbiw	r26, 0x01	; 1
     b1a:	c9 f7       	brne	.-14     	; 0xb0e <__stack+0x20f>
     b1c:	5c 98       	cbi	0x0b, 4	; 11
     b1e:	dc 01       	movw	r26, r24
     b20:	6f 93       	push	r22
     b22:	64 e0       	ldi	r22, 0x04	; 4
     b24:	6a 95       	dec	r22
     b26:	f1 f7       	brne	.-4      	; 0xb24 <__stack+0x225>
     b28:	6f 91       	pop	r22
     b2a:	11 97       	sbiw	r26, 0x01	; 1
     b2c:	c9 f7       	brne	.-14     	; 0xb20 <__stack+0x221>
     b2e:	35 b1       	in	r19, 0x05	; 5
     b30:	05 2f       	mov	r16, r21
     b32:	01 70       	andi	r16, 0x01	; 1
     b34:	10 e0       	ldi	r17, 0x00	; 0
     b36:	68 01       	movw	r12, r16
     b38:	cc 0c       	add	r12, r12
     b3a:	dd 1c       	adc	r13, r13
     b3c:	25 2f       	mov	r18, r21
     b3e:	26 70       	andi	r18, 0x06	; 6
     b40:	22 0f       	add	r18, r18
     b42:	22 0f       	add	r18, r18
     b44:	22 0f       	add	r18, r18
     b46:	2c 29       	or	r18, r12
     b48:	3d 7c       	andi	r19, 0xCD	; 205
     b4a:	23 2b       	or	r18, r19
     b4c:	25 b9       	out	0x05, r18	; 5
     b4e:	2b b1       	in	r18, 0x0b	; 11
     b50:	58 70       	andi	r21, 0x08	; 8
     b52:	52 95       	swap	r21
     b54:	50 7f       	andi	r21, 0xF0	; 240
     b56:	2f 77       	andi	r18, 0x7F	; 127
     b58:	52 2b       	or	r21, r18
     b5a:	5b b9       	out	0x0b, r21	; 11
     b5c:	5c 9a       	sbi	0x0b, 4	; 11
     b5e:	dc 01       	movw	r26, r24
     b60:	6f 93       	push	r22
     b62:	64 e0       	ldi	r22, 0x04	; 4
     b64:	6a 95       	dec	r22
     b66:	f1 f7       	brne	.-4      	; 0xb64 <__stack+0x265>
     b68:	6f 91       	pop	r22
     b6a:	11 97       	sbiw	r26, 0x01	; 1
     b6c:	c9 f7       	brne	.-14     	; 0xb60 <__stack+0x261>
     b6e:	5c 98       	cbi	0x0b, 4	; 11
     b70:	dc 01       	movw	r26, r24
     b72:	6f 93       	push	r22
     b74:	64 e0       	ldi	r22, 0x04	; 4
     b76:	6a 95       	dec	r22
     b78:	f1 f7       	brne	.-4      	; 0xb76 <__stack+0x277>
     b7a:	6f 91       	pop	r22
     b7c:	11 97       	sbiw	r26, 0x01	; 1
     b7e:	c9 f7       	brne	.-14     	; 0xb72 <__stack+0x273>
     b80:	ea b8       	out	0x0a, r14	; 10
     b82:	fb b8       	out	0x0b, r15	; 11
     b84:	f4 b9       	out	0x04, r31	; 4
     b86:	e5 b9       	out	0x05, r30	; 5
     b88:	fb 01       	movw	r30, r22
     b8a:	51 91       	ld	r21, Z+
     b8c:	bf 01       	movw	r22, r30
     b8e:	51 11       	cpse	r21, r1
     b90:	5e cf       	rjmp	.-324    	; 0xa4e <__stack+0x14f>
     b92:	0f 90       	pop	r0
     b94:	0f 90       	pop	r0
     b96:	0f 90       	pop	r0
     b98:	0f 90       	pop	r0
     b9a:	df 91       	pop	r29
     b9c:	cf 91       	pop	r28
     b9e:	1f 91       	pop	r17
     ba0:	0f 91       	pop	r16
     ba2:	ff 90       	pop	r15
     ba4:	ef 90       	pop	r14
     ba6:	df 90       	pop	r13
     ba8:	cf 90       	pop	r12
     baa:	bf 90       	pop	r11
     bac:	9f 90       	pop	r9
     bae:	8f 90       	pop	r8
     bb0:	08 95       	ret

00000bb2 <_ZN6detail7Display4sendEhhh>:
     bb2:	0f 93       	push	r16
     bb4:	1f 93       	push	r17
     bb6:	cf 93       	push	r28
     bb8:	df 93       	push	r29
     bba:	5a b1       	in	r21, 0x0a	; 10
     bbc:	57 98       	cbi	0x0a, 7	; 10
     bbe:	5a 98       	cbi	0x0b, 2	; 11
     bc0:	28 9a       	sbi	0x05, 0	; 5
     bc2:	a4 ec       	ldi	r26, 0xC4	; 196
     bc4:	b9 e0       	ldi	r27, 0x09	; 9
     bc6:	81 e0       	ldi	r24, 0x01	; 1
     bc8:	90 e0       	ldi	r25, 0x00	; 0
     bca:	fc 01       	movw	r30, r24
     bcc:	6f 93       	push	r22
     bce:	64 e0       	ldi	r22, 0x04	; 4
     bd0:	6a 95       	dec	r22
     bd2:	f1 f7       	brne	.-4      	; 0xbd0 <_ZN6detail7Display4sendEhhh+0x1e>
     bd4:	6f 91       	pop	r22
     bd6:	31 97       	sbiw	r30, 0x01	; 1
     bd8:	c9 f7       	brne	.-14     	; 0xbcc <_ZN6detail7Display4sendEhhh+0x1a>
     bda:	5c 9a       	sbi	0x0b, 4	; 11
     bdc:	fc 01       	movw	r30, r24
     bde:	6f 93       	push	r22
     be0:	64 e0       	ldi	r22, 0x04	; 4
     be2:	6a 95       	dec	r22
     be4:	f1 f7       	brne	.-4      	; 0xbe2 <_ZN6detail7Display4sendEhhh+0x30>
     be6:	6f 91       	pop	r22
     be8:	31 97       	sbiw	r30, 0x01	; 1
     bea:	c9 f7       	brne	.-14     	; 0xbde <_ZN6detail7Display4sendEhhh+0x2c>
     bec:	39 b1       	in	r19, 0x09	; 9
     bee:	5c 98       	cbi	0x0b, 4	; 11
     bf0:	fc 01       	movw	r30, r24
     bf2:	6f 93       	push	r22
     bf4:	64 e0       	ldi	r22, 0x04	; 4
     bf6:	6a 95       	dec	r22
     bf8:	f1 f7       	brne	.-4      	; 0xbf6 <_ZN6detail7Display4sendEhhh+0x44>
     bfa:	6f 91       	pop	r22
     bfc:	31 97       	sbiw	r30, 0x01	; 1
     bfe:	c9 f7       	brne	.-14     	; 0xbf2 <_ZN6detail7Display4sendEhhh+0x40>
     c00:	5c 9a       	sbi	0x0b, 4	; 11
     c02:	fc 01       	movw	r30, r24
     c04:	6f 93       	push	r22
     c06:	64 e0       	ldi	r22, 0x04	; 4
     c08:	6a 95       	dec	r22
     c0a:	f1 f7       	brne	.-4      	; 0xc08 <_ZN6detail7Display4sendEhhh+0x56>
     c0c:	6f 91       	pop	r22
     c0e:	31 97       	sbiw	r30, 0x01	; 1
     c10:	c9 f7       	brne	.-14     	; 0xc04 <_ZN6detail7Display4sendEhhh+0x52>
     c12:	5c 98       	cbi	0x0b, 4	; 11
     c14:	33 23       	and	r19, r19
     c16:	1c f4       	brge	.+6      	; 0xc1e <_ZN6detail7Display4sendEhhh+0x6c>
     c18:	11 97       	sbiw	r26, 0x01	; 1
     c1a:	09 f0       	breq	.+2      	; 0xc1e <_ZN6detail7Display4sendEhhh+0x6c>
     c1c:	d6 cf       	rjmp	.-84     	; 0xbca <_ZN6detail7Display4sendEhhh+0x18>
     c1e:	5a b9       	out	0x0a, r21	; 10
     c20:	54 b1       	in	r21, 0x04	; 4
     c22:	35 b1       	in	r19, 0x05	; 5
     c24:	ea b1       	in	r30, 0x0a	; 10
     c26:	7b b1       	in	r23, 0x0b	; 11
     c28:	28 98       	cbi	0x05, 0	; 5
     c2a:	44 23       	and	r20, r20
     c2c:	11 f0       	breq	.+4      	; 0xc32 <_ZN6detail7Display4sendEhhh+0x80>
     c2e:	5a 9a       	sbi	0x0b, 2	; 11
     c30:	01 c0       	rjmp	.+2      	; 0xc34 <_ZN6detail7Display4sendEhhh+0x82>
     c32:	5a 98       	cbi	0x0b, 2	; 11
     c34:	84 b1       	in	r24, 0x04	; 4
     c36:	82 63       	ori	r24, 0x32	; 50
     c38:	84 b9       	out	0x04, r24	; 4
     c3a:	57 9a       	sbi	0x0a, 7	; 10
     c3c:	21 30       	cpi	r18, 0x01	; 1
     c3e:	09 f4       	brne	.+2      	; 0xc42 <_ZN6detail7Display4sendEhhh+0x90>
     c40:	33 c0       	rjmp	.+102    	; 0xca8 <_ZN6detail7Display4sendEhhh+0xf6>
     c42:	86 2f       	mov	r24, r22
     c44:	90 e0       	ldi	r25, 0x00	; 0
     c46:	95 95       	asr	r25
     c48:	87 95       	ror	r24
     c4a:	95 95       	asr	r25
     c4c:	87 95       	ror	r24
     c4e:	95 95       	asr	r25
     c50:	87 95       	ror	r24
     c52:	95 95       	asr	r25
     c54:	87 95       	ror	r24
     c56:	95 b1       	in	r25, 0x05	; 5
     c58:	08 2f       	mov	r16, r24
     c5a:	01 70       	andi	r16, 0x01	; 1
     c5c:	10 e0       	ldi	r17, 0x00	; 0
     c5e:	00 0f       	add	r16, r16
     c60:	11 1f       	adc	r17, r17
     c62:	28 2f       	mov	r18, r24
     c64:	26 70       	andi	r18, 0x06	; 6
     c66:	22 0f       	add	r18, r18
     c68:	22 0f       	add	r18, r18
     c6a:	22 0f       	add	r18, r18
     c6c:	02 2b       	or	r16, r18
     c6e:	9d 7c       	andi	r25, 0xCD	; 205
     c70:	09 2b       	or	r16, r25
     c72:	05 b9       	out	0x05, r16	; 5
     c74:	9b b1       	in	r25, 0x0b	; 11
     c76:	88 70       	andi	r24, 0x08	; 8
     c78:	82 95       	swap	r24
     c7a:	80 7f       	andi	r24, 0xF0	; 240
     c7c:	9f 77       	andi	r25, 0x7F	; 127
     c7e:	89 2b       	or	r24, r25
     c80:	8b b9       	out	0x0b, r24	; 11
     c82:	5c 9a       	sbi	0x0b, 4	; 11
     c84:	81 e0       	ldi	r24, 0x01	; 1
     c86:	90 e0       	ldi	r25, 0x00	; 0
     c88:	dc 01       	movw	r26, r24
     c8a:	6f 93       	push	r22
     c8c:	64 e0       	ldi	r22, 0x04	; 4
     c8e:	6a 95       	dec	r22
     c90:	f1 f7       	brne	.-4      	; 0xc8e <_ZN6detail7Display4sendEhhh+0xdc>
     c92:	6f 91       	pop	r22
     c94:	11 97       	sbiw	r26, 0x01	; 1
     c96:	c9 f7       	brne	.-14     	; 0xc8a <_ZN6detail7Display4sendEhhh+0xd8>
     c98:	5c 98       	cbi	0x0b, 4	; 11
     c9a:	6f 93       	push	r22
     c9c:	64 e0       	ldi	r22, 0x04	; 4
     c9e:	6a 95       	dec	r22
     ca0:	f1 f7       	brne	.-4      	; 0xc9e <_ZN6detail7Display4sendEhhh+0xec>
     ca2:	6f 91       	pop	r22
     ca4:	01 97       	sbiw	r24, 0x01	; 1
     ca6:	c9 f7       	brne	.-14     	; 0xc9a <_ZN6detail7Display4sendEhhh+0xe8>
     ca8:	85 b1       	in	r24, 0x05	; 5
     caa:	96 2f       	mov	r25, r22
     cac:	91 70       	andi	r25, 0x01	; 1
     cae:	c9 2f       	mov	r28, r25
     cb0:	90 e0       	ldi	r25, 0x00	; 0
     cb2:	d9 2f       	mov	r29, r25
     cb4:	cc 0f       	add	r28, r28
     cb6:	dd 1f       	adc	r29, r29
     cb8:	96 2f       	mov	r25, r22
     cba:	96 70       	andi	r25, 0x06	; 6
     cbc:	99 0f       	add	r25, r25
     cbe:	99 0f       	add	r25, r25
     cc0:	99 0f       	add	r25, r25
     cc2:	c9 2b       	or	r28, r25
     cc4:	8d 7c       	andi	r24, 0xCD	; 205
     cc6:	c8 2b       	or	r28, r24
     cc8:	c5 b9       	out	0x05, r28	; 5
     cca:	8b b1       	in	r24, 0x0b	; 11
     ccc:	68 70       	andi	r22, 0x08	; 8
     cce:	62 95       	swap	r22
     cd0:	60 7f       	andi	r22, 0xF0	; 240
     cd2:	8f 77       	andi	r24, 0x7F	; 127
     cd4:	68 2b       	or	r22, r24
     cd6:	6b b9       	out	0x0b, r22	; 11
     cd8:	5c 9a       	sbi	0x0b, 4	; 11
     cda:	81 e0       	ldi	r24, 0x01	; 1
     cdc:	90 e0       	ldi	r25, 0x00	; 0
     cde:	dc 01       	movw	r26, r24
     ce0:	6f 93       	push	r22
     ce2:	64 e0       	ldi	r22, 0x04	; 4
     ce4:	6a 95       	dec	r22
     ce6:	f1 f7       	brne	.-4      	; 0xce4 <_ZN6detail7Display4sendEhhh+0x132>
     ce8:	6f 91       	pop	r22
     cea:	11 97       	sbiw	r26, 0x01	; 1
     cec:	c9 f7       	brne	.-14     	; 0xce0 <_ZN6detail7Display4sendEhhh+0x12e>
     cee:	5c 98       	cbi	0x0b, 4	; 11
     cf0:	6f 93       	push	r22
     cf2:	64 e0       	ldi	r22, 0x04	; 4
     cf4:	6a 95       	dec	r22
     cf6:	f1 f7       	brne	.-4      	; 0xcf4 <_ZN6detail7Display4sendEhhh+0x142>
     cf8:	6f 91       	pop	r22
     cfa:	01 97       	sbiw	r24, 0x01	; 1
     cfc:	c9 f7       	brne	.-14     	; 0xcf0 <_ZN6detail7Display4sendEhhh+0x13e>
     cfe:	ea b9       	out	0x0a, r30	; 10
     d00:	7b b9       	out	0x0b, r23	; 11
     d02:	54 b9       	out	0x04, r21	; 4
     d04:	35 b9       	out	0x05, r19	; 5
     d06:	df 91       	pop	r29
     d08:	cf 91       	pop	r28
     d0a:	1f 91       	pop	r17
     d0c:	0f 91       	pop	r16
     d0e:	08 95       	ret

00000d10 <_Z12init_displayv>:
     d10:	52 9a       	sbi	0x0a, 2	; 10
     d12:	20 9a       	sbi	0x04, 0	; 4
     d14:	54 9a       	sbi	0x0a, 4	; 10
     d16:	8e e1       	ldi	r24, 0x1E	; 30
     d18:	90 e0       	ldi	r25, 0x00	; 0
     d1a:	28 ee       	ldi	r18, 0xE8	; 232
     d1c:	33 e0       	ldi	r19, 0x03	; 3
     d1e:	f9 01       	movw	r30, r18
     d20:	6f 93       	push	r22
     d22:	64 e0       	ldi	r22, 0x04	; 4
     d24:	6a 95       	dec	r22
     d26:	f1 f7       	brne	.-4      	; 0xd24 <_Z12init_displayv+0x14>
     d28:	6f 91       	pop	r22
     d2a:	31 97       	sbiw	r30, 0x01	; 1
     d2c:	c9 f7       	brne	.-14     	; 0xd20 <_Z12init_displayv+0x10>
     d2e:	01 97       	sbiw	r24, 0x01	; 1
     d30:	b1 f7       	brne	.-20     	; 0xd1e <_Z12init_displayv+0xe>
     d32:	5a b1       	in	r21, 0x0a	; 10
     d34:	57 98       	cbi	0x0a, 7	; 10
     d36:	5a 98       	cbi	0x0b, 2	; 11
     d38:	28 9a       	sbi	0x05, 0	; 5
     d3a:	24 ec       	ldi	r18, 0xC4	; 196
     d3c:	39 e0       	ldi	r19, 0x09	; 9
     d3e:	81 e0       	ldi	r24, 0x01	; 1
     d40:	90 e0       	ldi	r25, 0x00	; 0
     d42:	fc 01       	movw	r30, r24
     d44:	6f 93       	push	r22
     d46:	64 e0       	ldi	r22, 0x04	; 4
     d48:	6a 95       	dec	r22
     d4a:	f1 f7       	brne	.-4      	; 0xd48 <_Z12init_displayv+0x38>
     d4c:	6f 91       	pop	r22
     d4e:	31 97       	sbiw	r30, 0x01	; 1
     d50:	c9 f7       	brne	.-14     	; 0xd44 <_Z12init_displayv+0x34>
     d52:	5c 9a       	sbi	0x0b, 4	; 11
     d54:	fc 01       	movw	r30, r24
     d56:	6f 93       	push	r22
     d58:	64 e0       	ldi	r22, 0x04	; 4
     d5a:	6a 95       	dec	r22
     d5c:	f1 f7       	brne	.-4      	; 0xd5a <_Z12init_displayv+0x4a>
     d5e:	6f 91       	pop	r22
     d60:	31 97       	sbiw	r30, 0x01	; 1
     d62:	c9 f7       	brne	.-14     	; 0xd56 <_Z12init_displayv+0x46>
     d64:	49 b1       	in	r20, 0x09	; 9
     d66:	5c 98       	cbi	0x0b, 4	; 11
     d68:	fc 01       	movw	r30, r24
     d6a:	6f 93       	push	r22
     d6c:	64 e0       	ldi	r22, 0x04	; 4
     d6e:	6a 95       	dec	r22
     d70:	f1 f7       	brne	.-4      	; 0xd6e <_Z12init_displayv+0x5e>
     d72:	6f 91       	pop	r22
     d74:	31 97       	sbiw	r30, 0x01	; 1
     d76:	c9 f7       	brne	.-14     	; 0xd6a <_Z12init_displayv+0x5a>
     d78:	5c 9a       	sbi	0x0b, 4	; 11
     d7a:	fc 01       	movw	r30, r24
     d7c:	6f 93       	push	r22
     d7e:	64 e0       	ldi	r22, 0x04	; 4
     d80:	6a 95       	dec	r22
     d82:	f1 f7       	brne	.-4      	; 0xd80 <_Z12init_displayv+0x70>
     d84:	6f 91       	pop	r22
     d86:	31 97       	sbiw	r30, 0x01	; 1
     d88:	c9 f7       	brne	.-14     	; 0xd7c <_Z12init_displayv+0x6c>
     d8a:	5c 98       	cbi	0x0b, 4	; 11
     d8c:	44 23       	and	r20, r20
     d8e:	24 f4       	brge	.+8      	; 0xd98 <_Z12init_displayv+0x88>
     d90:	21 50       	subi	r18, 0x01	; 1
     d92:	31 09       	sbc	r19, r1
     d94:	09 f0       	breq	.+2      	; 0xd98 <_Z12init_displayv+0x88>
     d96:	d5 cf       	rjmp	.-86     	; 0xd42 <_Z12init_displayv+0x32>
     d98:	5a b9       	out	0x0a, r21	; 10
     d9a:	34 b1       	in	r19, 0x04	; 4
     d9c:	25 b1       	in	r18, 0x05	; 5
     d9e:	5a b1       	in	r21, 0x0a	; 10
     da0:	4b b1       	in	r20, 0x0b	; 11
     da2:	28 98       	cbi	0x05, 0	; 5
     da4:	5a 98       	cbi	0x0b, 2	; 11
     da6:	84 b1       	in	r24, 0x04	; 4
     da8:	82 63       	ori	r24, 0x32	; 50
     daa:	84 b9       	out	0x04, r24	; 4
     dac:	57 9a       	sbi	0x0a, 7	; 10
     dae:	85 b1       	in	r24, 0x05	; 5
     db0:	8d 7c       	andi	r24, 0xCD	; 205
     db2:	82 61       	ori	r24, 0x12	; 18
     db4:	85 b9       	out	0x05, r24	; 5
     db6:	5f 98       	cbi	0x0b, 7	; 11
     db8:	5c 9a       	sbi	0x0b, 4	; 11
     dba:	81 e0       	ldi	r24, 0x01	; 1
     dbc:	90 e0       	ldi	r25, 0x00	; 0
     dbe:	fc 01       	movw	r30, r24
     dc0:	6f 93       	push	r22
     dc2:	64 e0       	ldi	r22, 0x04	; 4
     dc4:	6a 95       	dec	r22
     dc6:	f1 f7       	brne	.-4      	; 0xdc4 <_Z12init_displayv+0xb4>
     dc8:	6f 91       	pop	r22
     dca:	31 97       	sbiw	r30, 0x01	; 1
     dcc:	c9 f7       	brne	.-14     	; 0xdc0 <_Z12init_displayv+0xb0>
     dce:	5c 98       	cbi	0x0b, 4	; 11
     dd0:	6f 93       	push	r22
     dd2:	64 e0       	ldi	r22, 0x04	; 4
     dd4:	6a 95       	dec	r22
     dd6:	f1 f7       	brne	.-4      	; 0xdd4 <_Z12init_displayv+0xc4>
     dd8:	6f 91       	pop	r22
     dda:	01 97       	sbiw	r24, 0x01	; 1
     ddc:	c9 f7       	brne	.-14     	; 0xdd0 <_Z12init_displayv+0xc0>
     dde:	5a b9       	out	0x0a, r21	; 10
     de0:	4b b9       	out	0x0b, r20	; 11
     de2:	34 b9       	out	0x04, r19	; 4
     de4:	25 b9       	out	0x05, r18	; 5
     de6:	86 e0       	ldi	r24, 0x06	; 6
     de8:	90 e0       	ldi	r25, 0x00	; 0
     dea:	28 ee       	ldi	r18, 0xE8	; 232
     dec:	33 e0       	ldi	r19, 0x03	; 3
     dee:	f9 01       	movw	r30, r18
     df0:	6f 93       	push	r22
     df2:	64 e0       	ldi	r22, 0x04	; 4
     df4:	6a 95       	dec	r22
     df6:	f1 f7       	brne	.-4      	; 0xdf4 <_Z12init_displayv+0xe4>
     df8:	6f 91       	pop	r22
     dfa:	31 97       	sbiw	r30, 0x01	; 1
     dfc:	c9 f7       	brne	.-14     	; 0xdf0 <_Z12init_displayv+0xe0>
     dfe:	01 97       	sbiw	r24, 0x01	; 1
     e00:	b1 f7       	brne	.-20     	; 0xdee <_Z12init_displayv+0xde>
     e02:	5a b1       	in	r21, 0x0a	; 10
     e04:	57 98       	cbi	0x0a, 7	; 10
     e06:	5a 98       	cbi	0x0b, 2	; 11
     e08:	28 9a       	sbi	0x05, 0	; 5
     e0a:	24 ec       	ldi	r18, 0xC4	; 196
     e0c:	39 e0       	ldi	r19, 0x09	; 9
     e0e:	81 e0       	ldi	r24, 0x01	; 1
     e10:	90 e0       	ldi	r25, 0x00	; 0
     e12:	fc 01       	movw	r30, r24
     e14:	6f 93       	push	r22
     e16:	64 e0       	ldi	r22, 0x04	; 4
     e18:	6a 95       	dec	r22
     e1a:	f1 f7       	brne	.-4      	; 0xe18 <_Z12init_displayv+0x108>
     e1c:	6f 91       	pop	r22
     e1e:	31 97       	sbiw	r30, 0x01	; 1
     e20:	c9 f7       	brne	.-14     	; 0xe14 <_Z12init_displayv+0x104>
     e22:	5c 9a       	sbi	0x0b, 4	; 11
     e24:	fc 01       	movw	r30, r24
     e26:	6f 93       	push	r22
     e28:	64 e0       	ldi	r22, 0x04	; 4
     e2a:	6a 95       	dec	r22
     e2c:	f1 f7       	brne	.-4      	; 0xe2a <_Z12init_displayv+0x11a>
     e2e:	6f 91       	pop	r22
     e30:	31 97       	sbiw	r30, 0x01	; 1
     e32:	c9 f7       	brne	.-14     	; 0xe26 <_Z12init_displayv+0x116>
     e34:	49 b1       	in	r20, 0x09	; 9
     e36:	5c 98       	cbi	0x0b, 4	; 11
     e38:	fc 01       	movw	r30, r24
     e3a:	6f 93       	push	r22
     e3c:	64 e0       	ldi	r22, 0x04	; 4
     e3e:	6a 95       	dec	r22
     e40:	f1 f7       	brne	.-4      	; 0xe3e <_Z12init_displayv+0x12e>
     e42:	6f 91       	pop	r22
     e44:	31 97       	sbiw	r30, 0x01	; 1
     e46:	c9 f7       	brne	.-14     	; 0xe3a <_Z12init_displayv+0x12a>
     e48:	5c 9a       	sbi	0x0b, 4	; 11
     e4a:	fc 01       	movw	r30, r24
     e4c:	6f 93       	push	r22
     e4e:	64 e0       	ldi	r22, 0x04	; 4
     e50:	6a 95       	dec	r22
     e52:	f1 f7       	brne	.-4      	; 0xe50 <_Z12init_displayv+0x140>
     e54:	6f 91       	pop	r22
     e56:	31 97       	sbiw	r30, 0x01	; 1
     e58:	c9 f7       	brne	.-14     	; 0xe4c <_Z12init_displayv+0x13c>
     e5a:	5c 98       	cbi	0x0b, 4	; 11
     e5c:	44 23       	and	r20, r20
     e5e:	24 f4       	brge	.+8      	; 0xe68 <_Z12init_displayv+0x158>
     e60:	21 50       	subi	r18, 0x01	; 1
     e62:	31 09       	sbc	r19, r1
     e64:	09 f0       	breq	.+2      	; 0xe68 <_Z12init_displayv+0x158>
     e66:	d5 cf       	rjmp	.-86     	; 0xe12 <_Z12init_displayv+0x102>
     e68:	5a b9       	out	0x0a, r21	; 10
     e6a:	34 b1       	in	r19, 0x04	; 4
     e6c:	25 b1       	in	r18, 0x05	; 5
     e6e:	5a b1       	in	r21, 0x0a	; 10
     e70:	4b b1       	in	r20, 0x0b	; 11
     e72:	28 98       	cbi	0x05, 0	; 5
     e74:	5a 98       	cbi	0x0b, 2	; 11
     e76:	84 b1       	in	r24, 0x04	; 4
     e78:	82 63       	ori	r24, 0x32	; 50
     e7a:	84 b9       	out	0x04, r24	; 4
     e7c:	57 9a       	sbi	0x0a, 7	; 10
     e7e:	85 b1       	in	r24, 0x05	; 5
     e80:	8d 7c       	andi	r24, 0xCD	; 205
     e82:	82 61       	ori	r24, 0x12	; 18
     e84:	85 b9       	out	0x05, r24	; 5
     e86:	5f 98       	cbi	0x0b, 7	; 11
     e88:	5c 9a       	sbi	0x0b, 4	; 11
     e8a:	81 e0       	ldi	r24, 0x01	; 1
     e8c:	90 e0       	ldi	r25, 0x00	; 0
     e8e:	fc 01       	movw	r30, r24
     e90:	6f 93       	push	r22
     e92:	64 e0       	ldi	r22, 0x04	; 4
     e94:	6a 95       	dec	r22
     e96:	f1 f7       	brne	.-4      	; 0xe94 <_Z12init_displayv+0x184>
     e98:	6f 91       	pop	r22
     e9a:	31 97       	sbiw	r30, 0x01	; 1
     e9c:	c9 f7       	brne	.-14     	; 0xe90 <_Z12init_displayv+0x180>
     e9e:	5c 98       	cbi	0x0b, 4	; 11
     ea0:	6f 93       	push	r22
     ea2:	64 e0       	ldi	r22, 0x04	; 4
     ea4:	6a 95       	dec	r22
     ea6:	f1 f7       	brne	.-4      	; 0xea4 <_Z12init_displayv+0x194>
     ea8:	6f 91       	pop	r22
     eaa:	01 97       	sbiw	r24, 0x01	; 1
     eac:	c9 f7       	brne	.-14     	; 0xea0 <_Z12init_displayv+0x190>
     eae:	5a b9       	out	0x0a, r21	; 10
     eb0:	4b b9       	out	0x0b, r20	; 11
     eb2:	34 b9       	out	0x04, r19	; 4
     eb4:	25 b9       	out	0x05, r18	; 5
     eb6:	88 ee       	ldi	r24, 0xE8	; 232
     eb8:	93 e0       	ldi	r25, 0x03	; 3
     eba:	fc 01       	movw	r30, r24
     ebc:	6f 93       	push	r22
     ebe:	64 e0       	ldi	r22, 0x04	; 4
     ec0:	6a 95       	dec	r22
     ec2:	f1 f7       	brne	.-4      	; 0xec0 <_Z12init_displayv+0x1b0>
     ec4:	6f 91       	pop	r22
     ec6:	31 97       	sbiw	r30, 0x01	; 1
     ec8:	c9 f7       	brne	.-14     	; 0xebc <_Z12init_displayv+0x1ac>
     eca:	6f 93       	push	r22
     ecc:	64 e0       	ldi	r22, 0x04	; 4
     ece:	6a 95       	dec	r22
     ed0:	f1 f7       	brne	.-4      	; 0xece <_Z12init_displayv+0x1be>
     ed2:	6f 91       	pop	r22
     ed4:	01 97       	sbiw	r24, 0x01	; 1
     ed6:	c9 f7       	brne	.-14     	; 0xeca <_Z12init_displayv+0x1ba>
     ed8:	5a b1       	in	r21, 0x0a	; 10
     eda:	57 98       	cbi	0x0a, 7	; 10
     edc:	5a 98       	cbi	0x0b, 2	; 11
     ede:	28 9a       	sbi	0x05, 0	; 5
     ee0:	24 ec       	ldi	r18, 0xC4	; 196
     ee2:	39 e0       	ldi	r19, 0x09	; 9
     ee4:	81 e0       	ldi	r24, 0x01	; 1
     ee6:	90 e0       	ldi	r25, 0x00	; 0
     ee8:	fc 01       	movw	r30, r24
     eea:	6f 93       	push	r22
     eec:	64 e0       	ldi	r22, 0x04	; 4
     eee:	6a 95       	dec	r22
     ef0:	f1 f7       	brne	.-4      	; 0xeee <_Z12init_displayv+0x1de>
     ef2:	6f 91       	pop	r22
     ef4:	31 97       	sbiw	r30, 0x01	; 1
     ef6:	c9 f7       	brne	.-14     	; 0xeea <_Z12init_displayv+0x1da>
     ef8:	5c 9a       	sbi	0x0b, 4	; 11
     efa:	fc 01       	movw	r30, r24
     efc:	6f 93       	push	r22
     efe:	64 e0       	ldi	r22, 0x04	; 4
     f00:	6a 95       	dec	r22
     f02:	f1 f7       	brne	.-4      	; 0xf00 <_Z12init_displayv+0x1f0>
     f04:	6f 91       	pop	r22
     f06:	31 97       	sbiw	r30, 0x01	; 1
     f08:	c9 f7       	brne	.-14     	; 0xefc <_Z12init_displayv+0x1ec>
     f0a:	49 b1       	in	r20, 0x09	; 9
     f0c:	5c 98       	cbi	0x0b, 4	; 11
     f0e:	fc 01       	movw	r30, r24
     f10:	6f 93       	push	r22
     f12:	64 e0       	ldi	r22, 0x04	; 4
     f14:	6a 95       	dec	r22
     f16:	f1 f7       	brne	.-4      	; 0xf14 <_Z12init_displayv+0x204>
     f18:	6f 91       	pop	r22
     f1a:	31 97       	sbiw	r30, 0x01	; 1
     f1c:	c9 f7       	brne	.-14     	; 0xf10 <_Z12init_displayv+0x200>
     f1e:	5c 9a       	sbi	0x0b, 4	; 11
     f20:	fc 01       	movw	r30, r24
     f22:	6f 93       	push	r22
     f24:	64 e0       	ldi	r22, 0x04	; 4
     f26:	6a 95       	dec	r22
     f28:	f1 f7       	brne	.-4      	; 0xf26 <_Z12init_displayv+0x216>
     f2a:	6f 91       	pop	r22
     f2c:	31 97       	sbiw	r30, 0x01	; 1
     f2e:	c9 f7       	brne	.-14     	; 0xf22 <_Z12init_displayv+0x212>
     f30:	5c 98       	cbi	0x0b, 4	; 11
     f32:	44 23       	and	r20, r20
     f34:	24 f4       	brge	.+8      	; 0xf3e <_Z12init_displayv+0x22e>
     f36:	21 50       	subi	r18, 0x01	; 1
     f38:	31 09       	sbc	r19, r1
     f3a:	09 f0       	breq	.+2      	; 0xf3e <_Z12init_displayv+0x22e>
     f3c:	d5 cf       	rjmp	.-86     	; 0xee8 <_Z12init_displayv+0x1d8>
     f3e:	5a b9       	out	0x0a, r21	; 10
     f40:	34 b1       	in	r19, 0x04	; 4
     f42:	25 b1       	in	r18, 0x05	; 5
     f44:	5a b1       	in	r21, 0x0a	; 10
     f46:	4b b1       	in	r20, 0x0b	; 11
     f48:	28 98       	cbi	0x05, 0	; 5
     f4a:	5a 98       	cbi	0x0b, 2	; 11
     f4c:	84 b1       	in	r24, 0x04	; 4
     f4e:	82 63       	ori	r24, 0x32	; 50
     f50:	84 b9       	out	0x04, r24	; 4
     f52:	57 9a       	sbi	0x0a, 7	; 10
     f54:	85 b1       	in	r24, 0x05	; 5
     f56:	8d 7c       	andi	r24, 0xCD	; 205
     f58:	82 61       	ori	r24, 0x12	; 18
     f5a:	85 b9       	out	0x05, r24	; 5
     f5c:	5f 98       	cbi	0x0b, 7	; 11
     f5e:	5c 9a       	sbi	0x0b, 4	; 11
     f60:	81 e0       	ldi	r24, 0x01	; 1
     f62:	90 e0       	ldi	r25, 0x00	; 0
     f64:	fc 01       	movw	r30, r24
     f66:	6f 93       	push	r22
     f68:	64 e0       	ldi	r22, 0x04	; 4
     f6a:	6a 95       	dec	r22
     f6c:	f1 f7       	brne	.-4      	; 0xf6a <_Z12init_displayv+0x25a>
     f6e:	6f 91       	pop	r22
     f70:	31 97       	sbiw	r30, 0x01	; 1
     f72:	c9 f7       	brne	.-14     	; 0xf66 <_Z12init_displayv+0x256>
     f74:	5c 98       	cbi	0x0b, 4	; 11
     f76:	6f 93       	push	r22
     f78:	64 e0       	ldi	r22, 0x04	; 4
     f7a:	6a 95       	dec	r22
     f7c:	f1 f7       	brne	.-4      	; 0xf7a <_Z12init_displayv+0x26a>
     f7e:	6f 91       	pop	r22
     f80:	01 97       	sbiw	r24, 0x01	; 1
     f82:	c9 f7       	brne	.-14     	; 0xf76 <_Z12init_displayv+0x266>
     f84:	5a b9       	out	0x0a, r21	; 10
     f86:	4b b9       	out	0x0b, r20	; 11
     f88:	34 b9       	out	0x04, r19	; 4
     f8a:	25 b9       	out	0x05, r18	; 5
     f8c:	88 ee       	ldi	r24, 0xE8	; 232
     f8e:	93 e0       	ldi	r25, 0x03	; 3
     f90:	fc 01       	movw	r30, r24
     f92:	6f 93       	push	r22
     f94:	64 e0       	ldi	r22, 0x04	; 4
     f96:	6a 95       	dec	r22
     f98:	f1 f7       	brne	.-4      	; 0xf96 <_Z12init_displayv+0x286>
     f9a:	6f 91       	pop	r22
     f9c:	31 97       	sbiw	r30, 0x01	; 1
     f9e:	c9 f7       	brne	.-14     	; 0xf92 <_Z12init_displayv+0x282>
     fa0:	6f 93       	push	r22
     fa2:	64 e0       	ldi	r22, 0x04	; 4
     fa4:	6a 95       	dec	r22
     fa6:	f1 f7       	brne	.-4      	; 0xfa4 <_Z12init_displayv+0x294>
     fa8:	6f 91       	pop	r22
     faa:	01 97       	sbiw	r24, 0x01	; 1
     fac:	c9 f7       	brne	.-14     	; 0xfa0 <_Z12init_displayv+0x290>
     fae:	5a b1       	in	r21, 0x0a	; 10
     fb0:	57 98       	cbi	0x0a, 7	; 10
     fb2:	5a 98       	cbi	0x0b, 2	; 11
     fb4:	28 9a       	sbi	0x05, 0	; 5
     fb6:	24 ec       	ldi	r18, 0xC4	; 196
     fb8:	39 e0       	ldi	r19, 0x09	; 9
     fba:	81 e0       	ldi	r24, 0x01	; 1
     fbc:	90 e0       	ldi	r25, 0x00	; 0
     fbe:	fc 01       	movw	r30, r24
     fc0:	6f 93       	push	r22
     fc2:	64 e0       	ldi	r22, 0x04	; 4
     fc4:	6a 95       	dec	r22
     fc6:	f1 f7       	brne	.-4      	; 0xfc4 <_Z12init_displayv+0x2b4>
     fc8:	6f 91       	pop	r22
     fca:	31 97       	sbiw	r30, 0x01	; 1
     fcc:	c9 f7       	brne	.-14     	; 0xfc0 <_Z12init_displayv+0x2b0>
     fce:	5c 9a       	sbi	0x0b, 4	; 11
     fd0:	fc 01       	movw	r30, r24
     fd2:	6f 93       	push	r22
     fd4:	64 e0       	ldi	r22, 0x04	; 4
     fd6:	6a 95       	dec	r22
     fd8:	f1 f7       	brne	.-4      	; 0xfd6 <_Z12init_displayv+0x2c6>
     fda:	6f 91       	pop	r22
     fdc:	31 97       	sbiw	r30, 0x01	; 1
     fde:	c9 f7       	brne	.-14     	; 0xfd2 <_Z12init_displayv+0x2c2>
     fe0:	49 b1       	in	r20, 0x09	; 9
     fe2:	5c 98       	cbi	0x0b, 4	; 11
     fe4:	fc 01       	movw	r30, r24
     fe6:	6f 93       	push	r22
     fe8:	64 e0       	ldi	r22, 0x04	; 4
     fea:	6a 95       	dec	r22
     fec:	f1 f7       	brne	.-4      	; 0xfea <_Z12init_displayv+0x2da>
     fee:	6f 91       	pop	r22
     ff0:	31 97       	sbiw	r30, 0x01	; 1
     ff2:	c9 f7       	brne	.-14     	; 0xfe6 <_Z12init_displayv+0x2d6>
     ff4:	5c 9a       	sbi	0x0b, 4	; 11
     ff6:	fc 01       	movw	r30, r24
     ff8:	6f 93       	push	r22
     ffa:	64 e0       	ldi	r22, 0x04	; 4
     ffc:	6a 95       	dec	r22
     ffe:	f1 f7       	brne	.-4      	; 0xffc <_Z12init_displayv+0x2ec>
    1000:	6f 91       	pop	r22
    1002:	31 97       	sbiw	r30, 0x01	; 1
    1004:	c9 f7       	brne	.-14     	; 0xff8 <_Z12init_displayv+0x2e8>
    1006:	5c 98       	cbi	0x0b, 4	; 11
    1008:	44 23       	and	r20, r20
    100a:	24 f4       	brge	.+8      	; 0x1014 <_Z12init_displayv+0x304>
    100c:	21 50       	subi	r18, 0x01	; 1
    100e:	31 09       	sbc	r19, r1
    1010:	09 f0       	breq	.+2      	; 0x1014 <_Z12init_displayv+0x304>
    1012:	d5 cf       	rjmp	.-86     	; 0xfbe <_Z12init_displayv+0x2ae>
    1014:	5a b9       	out	0x0a, r21	; 10
    1016:	34 b1       	in	r19, 0x04	; 4
    1018:	25 b1       	in	r18, 0x05	; 5
    101a:	5a b1       	in	r21, 0x0a	; 10
    101c:	4b b1       	in	r20, 0x0b	; 11
    101e:	28 98       	cbi	0x05, 0	; 5
    1020:	5a 98       	cbi	0x0b, 2	; 11
    1022:	84 b1       	in	r24, 0x04	; 4
    1024:	82 63       	ori	r24, 0x32	; 50
    1026:	84 b9       	out	0x04, r24	; 4
    1028:	57 9a       	sbi	0x0a, 7	; 10
    102a:	85 b1       	in	r24, 0x05	; 5
    102c:	8d 7c       	andi	r24, 0xCD	; 205
    102e:	80 61       	ori	r24, 0x10	; 16
    1030:	85 b9       	out	0x05, r24	; 5
    1032:	5f 98       	cbi	0x0b, 7	; 11
    1034:	5c 9a       	sbi	0x0b, 4	; 11
    1036:	81 e0       	ldi	r24, 0x01	; 1
    1038:	90 e0       	ldi	r25, 0x00	; 0
    103a:	fc 01       	movw	r30, r24
    103c:	6f 93       	push	r22
    103e:	64 e0       	ldi	r22, 0x04	; 4
    1040:	6a 95       	dec	r22
    1042:	f1 f7       	brne	.-4      	; 0x1040 <_Z12init_displayv+0x330>
    1044:	6f 91       	pop	r22
    1046:	31 97       	sbiw	r30, 0x01	; 1
    1048:	c9 f7       	brne	.-14     	; 0x103c <_Z12init_displayv+0x32c>
    104a:	5c 98       	cbi	0x0b, 4	; 11
    104c:	6f 93       	push	r22
    104e:	64 e0       	ldi	r22, 0x04	; 4
    1050:	6a 95       	dec	r22
    1052:	f1 f7       	brne	.-4      	; 0x1050 <_Z12init_displayv+0x340>
    1054:	6f 91       	pop	r22
    1056:	01 97       	sbiw	r24, 0x01	; 1
    1058:	c9 f7       	brne	.-14     	; 0x104c <_Z12init_displayv+0x33c>
    105a:	5a b9       	out	0x0a, r21	; 10
    105c:	4b b9       	out	0x0b, r20	; 11
    105e:	34 b9       	out	0x04, r19	; 4
    1060:	25 b9       	out	0x05, r18	; 5
    1062:	88 ee       	ldi	r24, 0xE8	; 232
    1064:	93 e0       	ldi	r25, 0x03	; 3
    1066:	fc 01       	movw	r30, r24
    1068:	6f 93       	push	r22
    106a:	64 e0       	ldi	r22, 0x04	; 4
    106c:	6a 95       	dec	r22
    106e:	f1 f7       	brne	.-4      	; 0x106c <_Z12init_displayv+0x35c>
    1070:	6f 91       	pop	r22
    1072:	31 97       	sbiw	r30, 0x01	; 1
    1074:	c9 f7       	brne	.-14     	; 0x1068 <_Z12init_displayv+0x358>
    1076:	6f 93       	push	r22
    1078:	64 e0       	ldi	r22, 0x04	; 4
    107a:	6a 95       	dec	r22
    107c:	f1 f7       	brne	.-4      	; 0x107a <_Z12init_displayv+0x36a>
    107e:	6f 91       	pop	r22
    1080:	01 97       	sbiw	r24, 0x01	; 1
    1082:	c9 f7       	brne	.-14     	; 0x1076 <_Z12init_displayv+0x366>
    1084:	5a b1       	in	r21, 0x0a	; 10
    1086:	57 98       	cbi	0x0a, 7	; 10
    1088:	5a 98       	cbi	0x0b, 2	; 11
    108a:	28 9a       	sbi	0x05, 0	; 5
    108c:	24 ec       	ldi	r18, 0xC4	; 196
    108e:	39 e0       	ldi	r19, 0x09	; 9
    1090:	81 e0       	ldi	r24, 0x01	; 1
    1092:	90 e0       	ldi	r25, 0x00	; 0
    1094:	fc 01       	movw	r30, r24
    1096:	6f 93       	push	r22
    1098:	64 e0       	ldi	r22, 0x04	; 4
    109a:	6a 95       	dec	r22
    109c:	f1 f7       	brne	.-4      	; 0x109a <_Z12init_displayv+0x38a>
    109e:	6f 91       	pop	r22
    10a0:	31 97       	sbiw	r30, 0x01	; 1
    10a2:	c9 f7       	brne	.-14     	; 0x1096 <_Z12init_displayv+0x386>
    10a4:	5c 9a       	sbi	0x0b, 4	; 11
    10a6:	fc 01       	movw	r30, r24
    10a8:	6f 93       	push	r22
    10aa:	64 e0       	ldi	r22, 0x04	; 4
    10ac:	6a 95       	dec	r22
    10ae:	f1 f7       	brne	.-4      	; 0x10ac <_Z12init_displayv+0x39c>
    10b0:	6f 91       	pop	r22
    10b2:	31 97       	sbiw	r30, 0x01	; 1
    10b4:	c9 f7       	brne	.-14     	; 0x10a8 <_Z12init_displayv+0x398>
    10b6:	49 b1       	in	r20, 0x09	; 9
    10b8:	5c 98       	cbi	0x0b, 4	; 11
    10ba:	fc 01       	movw	r30, r24
    10bc:	6f 93       	push	r22
    10be:	64 e0       	ldi	r22, 0x04	; 4
    10c0:	6a 95       	dec	r22
    10c2:	f1 f7       	brne	.-4      	; 0x10c0 <_Z12init_displayv+0x3b0>
    10c4:	6f 91       	pop	r22
    10c6:	31 97       	sbiw	r30, 0x01	; 1
    10c8:	c9 f7       	brne	.-14     	; 0x10bc <_Z12init_displayv+0x3ac>
    10ca:	5c 9a       	sbi	0x0b, 4	; 11
    10cc:	fc 01       	movw	r30, r24
    10ce:	6f 93       	push	r22
    10d0:	64 e0       	ldi	r22, 0x04	; 4
    10d2:	6a 95       	dec	r22
    10d4:	f1 f7       	brne	.-4      	; 0x10d2 <_Z12init_displayv+0x3c2>
    10d6:	6f 91       	pop	r22
    10d8:	31 97       	sbiw	r30, 0x01	; 1
    10da:	c9 f7       	brne	.-14     	; 0x10ce <_Z12init_displayv+0x3be>
    10dc:	5c 98       	cbi	0x0b, 4	; 11
    10de:	44 23       	and	r20, r20
    10e0:	24 f4       	brge	.+8      	; 0x10ea <_Z12init_displayv+0x3da>
    10e2:	21 50       	subi	r18, 0x01	; 1
    10e4:	31 09       	sbc	r19, r1
    10e6:	09 f0       	breq	.+2      	; 0x10ea <_Z12init_displayv+0x3da>
    10e8:	d5 cf       	rjmp	.-86     	; 0x1094 <_Z12init_displayv+0x384>
    10ea:	5a b9       	out	0x0a, r21	; 10
    10ec:	44 b1       	in	r20, 0x04	; 4
    10ee:	35 b1       	in	r19, 0x05	; 5
    10f0:	6a b1       	in	r22, 0x0a	; 10
    10f2:	5b b1       	in	r21, 0x0b	; 11
    10f4:	28 98       	cbi	0x05, 0	; 5
    10f6:	5a 98       	cbi	0x0b, 2	; 11
    10f8:	84 b1       	in	r24, 0x04	; 4
    10fa:	82 63       	ori	r24, 0x32	; 50
    10fc:	84 b9       	out	0x04, r24	; 4
    10fe:	57 9a       	sbi	0x0a, 7	; 10
    1100:	85 b1       	in	r24, 0x05	; 5
    1102:	8d 7c       	andi	r24, 0xCD	; 205
    1104:	80 61       	ori	r24, 0x10	; 16
    1106:	85 b9       	out	0x05, r24	; 5
    1108:	5f 98       	cbi	0x0b, 7	; 11
    110a:	5c 9a       	sbi	0x0b, 4	; 11
    110c:	81 e0       	ldi	r24, 0x01	; 1
    110e:	90 e0       	ldi	r25, 0x00	; 0
    1110:	fc 01       	movw	r30, r24
    1112:	6f 93       	push	r22
    1114:	64 e0       	ldi	r22, 0x04	; 4
    1116:	6a 95       	dec	r22
    1118:	f1 f7       	brne	.-4      	; 0x1116 <_Z12init_displayv+0x406>
    111a:	6f 91       	pop	r22
    111c:	31 97       	sbiw	r30, 0x01	; 1
    111e:	c9 f7       	brne	.-14     	; 0x1112 <_Z12init_displayv+0x402>
    1120:	5c 98       	cbi	0x0b, 4	; 11
    1122:	fc 01       	movw	r30, r24
    1124:	6f 93       	push	r22
    1126:	64 e0       	ldi	r22, 0x04	; 4
    1128:	6a 95       	dec	r22
    112a:	f1 f7       	brne	.-4      	; 0x1128 <_Z12init_displayv+0x418>
    112c:	6f 91       	pop	r22
    112e:	31 97       	sbiw	r30, 0x01	; 1
    1130:	c9 f7       	brne	.-14     	; 0x1124 <_Z12init_displayv+0x414>
    1132:	25 b1       	in	r18, 0x05	; 5
    1134:	2d 7c       	andi	r18, 0xCD	; 205
    1136:	25 b9       	out	0x05, r18	; 5
    1138:	5f 9a       	sbi	0x0b, 7	; 11
    113a:	5c 9a       	sbi	0x0b, 4	; 11
    113c:	fc 01       	movw	r30, r24
    113e:	6f 93       	push	r22
    1140:	64 e0       	ldi	r22, 0x04	; 4
    1142:	6a 95       	dec	r22
    1144:	f1 f7       	brne	.-4      	; 0x1142 <_Z12init_displayv+0x432>
    1146:	6f 91       	pop	r22
    1148:	31 97       	sbiw	r30, 0x01	; 1
    114a:	c9 f7       	brne	.-14     	; 0x113e <_Z12init_displayv+0x42e>
    114c:	5c 98       	cbi	0x0b, 4	; 11
    114e:	6f 93       	push	r22
    1150:	64 e0       	ldi	r22, 0x04	; 4
    1152:	6a 95       	dec	r22
    1154:	f1 f7       	brne	.-4      	; 0x1152 <_Z12init_displayv+0x442>
    1156:	6f 91       	pop	r22
    1158:	01 97       	sbiw	r24, 0x01	; 1
    115a:	c9 f7       	brne	.-14     	; 0x114e <_Z12init_displayv+0x43e>
    115c:	6a b9       	out	0x0a, r22	; 10
    115e:	5b b9       	out	0x0b, r21	; 11
    1160:	44 b9       	out	0x04, r20	; 4
    1162:	35 b9       	out	0x05, r19	; 5
    1164:	5a b1       	in	r21, 0x0a	; 10
    1166:	57 98       	cbi	0x0a, 7	; 10
    1168:	5a 98       	cbi	0x0b, 2	; 11
    116a:	28 9a       	sbi	0x05, 0	; 5
    116c:	24 ec       	ldi	r18, 0xC4	; 196
    116e:	39 e0       	ldi	r19, 0x09	; 9
    1170:	81 e0       	ldi	r24, 0x01	; 1
    1172:	90 e0       	ldi	r25, 0x00	; 0
    1174:	fc 01       	movw	r30, r24
    1176:	6f 93       	push	r22
    1178:	64 e0       	ldi	r22, 0x04	; 4
    117a:	6a 95       	dec	r22
    117c:	f1 f7       	brne	.-4      	; 0x117a <_Z12init_displayv+0x46a>
    117e:	6f 91       	pop	r22
    1180:	31 97       	sbiw	r30, 0x01	; 1
    1182:	c9 f7       	brne	.-14     	; 0x1176 <_Z12init_displayv+0x466>
    1184:	5c 9a       	sbi	0x0b, 4	; 11
    1186:	fc 01       	movw	r30, r24
    1188:	6f 93       	push	r22
    118a:	64 e0       	ldi	r22, 0x04	; 4
    118c:	6a 95       	dec	r22
    118e:	f1 f7       	brne	.-4      	; 0x118c <_Z12init_displayv+0x47c>
    1190:	6f 91       	pop	r22
    1192:	31 97       	sbiw	r30, 0x01	; 1
    1194:	c9 f7       	brne	.-14     	; 0x1188 <_Z12init_displayv+0x478>
    1196:	49 b1       	in	r20, 0x09	; 9
    1198:	5c 98       	cbi	0x0b, 4	; 11
    119a:	fc 01       	movw	r30, r24
    119c:	6f 93       	push	r22
    119e:	64 e0       	ldi	r22, 0x04	; 4
    11a0:	6a 95       	dec	r22
    11a2:	f1 f7       	brne	.-4      	; 0x11a0 <_Z12init_displayv+0x490>
    11a4:	6f 91       	pop	r22
    11a6:	31 97       	sbiw	r30, 0x01	; 1
    11a8:	c9 f7       	brne	.-14     	; 0x119c <_Z12init_displayv+0x48c>
    11aa:	5c 9a       	sbi	0x0b, 4	; 11
    11ac:	fc 01       	movw	r30, r24
    11ae:	6f 93       	push	r22
    11b0:	64 e0       	ldi	r22, 0x04	; 4
    11b2:	6a 95       	dec	r22
    11b4:	f1 f7       	brne	.-4      	; 0x11b2 <_Z12init_displayv+0x4a2>
    11b6:	6f 91       	pop	r22
    11b8:	31 97       	sbiw	r30, 0x01	; 1
    11ba:	c9 f7       	brne	.-14     	; 0x11ae <_Z12init_displayv+0x49e>
    11bc:	5c 98       	cbi	0x0b, 4	; 11
    11be:	44 23       	and	r20, r20
    11c0:	24 f4       	brge	.+8      	; 0x11ca <_Z12init_displayv+0x4ba>
    11c2:	21 50       	subi	r18, 0x01	; 1
    11c4:	31 09       	sbc	r19, r1
    11c6:	09 f0       	breq	.+2      	; 0x11ca <_Z12init_displayv+0x4ba>
    11c8:	d5 cf       	rjmp	.-86     	; 0x1174 <_Z12init_displayv+0x464>
    11ca:	5a b9       	out	0x0a, r21	; 10
    11cc:	44 b1       	in	r20, 0x04	; 4
    11ce:	35 b1       	in	r19, 0x05	; 5
    11d0:	6a b1       	in	r22, 0x0a	; 10
    11d2:	5b b1       	in	r21, 0x0b	; 11
    11d4:	28 98       	cbi	0x05, 0	; 5
    11d6:	5a 98       	cbi	0x0b, 2	; 11
    11d8:	84 b1       	in	r24, 0x04	; 4
    11da:	82 63       	ori	r24, 0x32	; 50
    11dc:	84 b9       	out	0x04, r24	; 4
    11de:	57 9a       	sbi	0x0a, 7	; 10
    11e0:	85 b1       	in	r24, 0x05	; 5
    11e2:	8d 7c       	andi	r24, 0xCD	; 205
    11e4:	85 b9       	out	0x05, r24	; 5
    11e6:	5f 98       	cbi	0x0b, 7	; 11
    11e8:	5c 9a       	sbi	0x0b, 4	; 11
    11ea:	81 e0       	ldi	r24, 0x01	; 1
    11ec:	90 e0       	ldi	r25, 0x00	; 0
    11ee:	fc 01       	movw	r30, r24
    11f0:	6f 93       	push	r22
    11f2:	64 e0       	ldi	r22, 0x04	; 4
    11f4:	6a 95       	dec	r22
    11f6:	f1 f7       	brne	.-4      	; 0x11f4 <_Z12init_displayv+0x4e4>
    11f8:	6f 91       	pop	r22
    11fa:	31 97       	sbiw	r30, 0x01	; 1
    11fc:	c9 f7       	brne	.-14     	; 0x11f0 <_Z12init_displayv+0x4e0>
    11fe:	5c 98       	cbi	0x0b, 4	; 11
    1200:	fc 01       	movw	r30, r24
    1202:	6f 93       	push	r22
    1204:	64 e0       	ldi	r22, 0x04	; 4
    1206:	6a 95       	dec	r22
    1208:	f1 f7       	brne	.-4      	; 0x1206 <_Z12init_displayv+0x4f6>
    120a:	6f 91       	pop	r22
    120c:	31 97       	sbiw	r30, 0x01	; 1
    120e:	c9 f7       	brne	.-14     	; 0x1202 <_Z12init_displayv+0x4f2>
    1210:	25 b1       	in	r18, 0x05	; 5
    1212:	2d 7c       	andi	r18, 0xCD	; 205
    1214:	25 b9       	out	0x05, r18	; 5
    1216:	5f 9a       	sbi	0x0b, 7	; 11
    1218:	5c 9a       	sbi	0x0b, 4	; 11
    121a:	fc 01       	movw	r30, r24
    121c:	6f 93       	push	r22
    121e:	64 e0       	ldi	r22, 0x04	; 4
    1220:	6a 95       	dec	r22
    1222:	f1 f7       	brne	.-4      	; 0x1220 <_Z12init_displayv+0x510>
    1224:	6f 91       	pop	r22
    1226:	31 97       	sbiw	r30, 0x01	; 1
    1228:	c9 f7       	brne	.-14     	; 0x121c <_Z12init_displayv+0x50c>
    122a:	5c 98       	cbi	0x0b, 4	; 11
    122c:	6f 93       	push	r22
    122e:	64 e0       	ldi	r22, 0x04	; 4
    1230:	6a 95       	dec	r22
    1232:	f1 f7       	brne	.-4      	; 0x1230 <_Z12init_displayv+0x520>
    1234:	6f 91       	pop	r22
    1236:	01 97       	sbiw	r24, 0x01	; 1
    1238:	c9 f7       	brne	.-14     	; 0x122c <_Z12init_displayv+0x51c>
    123a:	6a b9       	out	0x0a, r22	; 10
    123c:	5b b9       	out	0x0b, r21	; 11
    123e:	44 b9       	out	0x04, r20	; 4
    1240:	35 b9       	out	0x05, r19	; 5
    1242:	5a b1       	in	r21, 0x0a	; 10
    1244:	57 98       	cbi	0x0a, 7	; 10
    1246:	5a 98       	cbi	0x0b, 2	; 11
    1248:	28 9a       	sbi	0x05, 0	; 5
    124a:	24 ec       	ldi	r18, 0xC4	; 196
    124c:	39 e0       	ldi	r19, 0x09	; 9
    124e:	81 e0       	ldi	r24, 0x01	; 1
    1250:	90 e0       	ldi	r25, 0x00	; 0
    1252:	fc 01       	movw	r30, r24
    1254:	6f 93       	push	r22
    1256:	64 e0       	ldi	r22, 0x04	; 4
    1258:	6a 95       	dec	r22
    125a:	f1 f7       	brne	.-4      	; 0x1258 <_Z12init_displayv+0x548>
    125c:	6f 91       	pop	r22
    125e:	31 97       	sbiw	r30, 0x01	; 1
    1260:	c9 f7       	brne	.-14     	; 0x1254 <_Z12init_displayv+0x544>
    1262:	5c 9a       	sbi	0x0b, 4	; 11
    1264:	fc 01       	movw	r30, r24
    1266:	6f 93       	push	r22
    1268:	64 e0       	ldi	r22, 0x04	; 4
    126a:	6a 95       	dec	r22
    126c:	f1 f7       	brne	.-4      	; 0x126a <_Z12init_displayv+0x55a>
    126e:	6f 91       	pop	r22
    1270:	31 97       	sbiw	r30, 0x01	; 1
    1272:	c9 f7       	brne	.-14     	; 0x1266 <_Z12init_displayv+0x556>
    1274:	49 b1       	in	r20, 0x09	; 9
    1276:	5c 98       	cbi	0x0b, 4	; 11
    1278:	fc 01       	movw	r30, r24
    127a:	6f 93       	push	r22
    127c:	64 e0       	ldi	r22, 0x04	; 4
    127e:	6a 95       	dec	r22
    1280:	f1 f7       	brne	.-4      	; 0x127e <_Z12init_displayv+0x56e>
    1282:	6f 91       	pop	r22
    1284:	31 97       	sbiw	r30, 0x01	; 1
    1286:	c9 f7       	brne	.-14     	; 0x127a <_Z12init_displayv+0x56a>
    1288:	5c 9a       	sbi	0x0b, 4	; 11
    128a:	fc 01       	movw	r30, r24
    128c:	6f 93       	push	r22
    128e:	64 e0       	ldi	r22, 0x04	; 4
    1290:	6a 95       	dec	r22
    1292:	f1 f7       	brne	.-4      	; 0x1290 <_Z12init_displayv+0x580>
    1294:	6f 91       	pop	r22
    1296:	31 97       	sbiw	r30, 0x01	; 1
    1298:	c9 f7       	brne	.-14     	; 0x128c <_Z12init_displayv+0x57c>
    129a:	5c 98       	cbi	0x0b, 4	; 11
    129c:	44 23       	and	r20, r20
    129e:	24 f4       	brge	.+8      	; 0x12a8 <_Z12init_displayv+0x598>
    12a0:	21 50       	subi	r18, 0x01	; 1
    12a2:	31 09       	sbc	r19, r1
    12a4:	09 f0       	breq	.+2      	; 0x12a8 <_Z12init_displayv+0x598>
    12a6:	d5 cf       	rjmp	.-86     	; 0x1252 <_Z12init_displayv+0x542>
    12a8:	5a b9       	out	0x0a, r21	; 10
    12aa:	44 b1       	in	r20, 0x04	; 4
    12ac:	35 b1       	in	r19, 0x05	; 5
    12ae:	6a b1       	in	r22, 0x0a	; 10
    12b0:	5b b1       	in	r21, 0x0b	; 11
    12b2:	28 98       	cbi	0x05, 0	; 5
    12b4:	5a 98       	cbi	0x0b, 2	; 11
    12b6:	84 b1       	in	r24, 0x04	; 4
    12b8:	82 63       	ori	r24, 0x32	; 50
    12ba:	84 b9       	out	0x04, r24	; 4
    12bc:	57 9a       	sbi	0x0a, 7	; 10
    12be:	85 b1       	in	r24, 0x05	; 5
    12c0:	8d 7c       	andi	r24, 0xCD	; 205
    12c2:	85 b9       	out	0x05, r24	; 5
    12c4:	5f 98       	cbi	0x0b, 7	; 11
    12c6:	5c 9a       	sbi	0x0b, 4	; 11
    12c8:	81 e0       	ldi	r24, 0x01	; 1
    12ca:	90 e0       	ldi	r25, 0x00	; 0
    12cc:	fc 01       	movw	r30, r24
    12ce:	6f 93       	push	r22
    12d0:	64 e0       	ldi	r22, 0x04	; 4
    12d2:	6a 95       	dec	r22
    12d4:	f1 f7       	brne	.-4      	; 0x12d2 <_Z12init_displayv+0x5c2>
    12d6:	6f 91       	pop	r22
    12d8:	31 97       	sbiw	r30, 0x01	; 1
    12da:	c9 f7       	brne	.-14     	; 0x12ce <_Z12init_displayv+0x5be>
    12dc:	5c 98       	cbi	0x0b, 4	; 11
    12de:	fc 01       	movw	r30, r24
    12e0:	6f 93       	push	r22
    12e2:	64 e0       	ldi	r22, 0x04	; 4
    12e4:	6a 95       	dec	r22
    12e6:	f1 f7       	brne	.-4      	; 0x12e4 <_Z12init_displayv+0x5d4>
    12e8:	6f 91       	pop	r22
    12ea:	31 97       	sbiw	r30, 0x01	; 1
    12ec:	c9 f7       	brne	.-14     	; 0x12e0 <_Z12init_displayv+0x5d0>
    12ee:	25 b1       	in	r18, 0x05	; 5
    12f0:	2d 7c       	andi	r18, 0xCD	; 205
    12f2:	22 60       	ori	r18, 0x02	; 2
    12f4:	25 b9       	out	0x05, r18	; 5
    12f6:	5f 98       	cbi	0x0b, 7	; 11
    12f8:	5c 9a       	sbi	0x0b, 4	; 11
    12fa:	fc 01       	movw	r30, r24
    12fc:	6f 93       	push	r22
    12fe:	64 e0       	ldi	r22, 0x04	; 4
    1300:	6a 95       	dec	r22
    1302:	f1 f7       	brne	.-4      	; 0x1300 <_Z12init_displayv+0x5f0>
    1304:	6f 91       	pop	r22
    1306:	31 97       	sbiw	r30, 0x01	; 1
    1308:	c9 f7       	brne	.-14     	; 0x12fc <_Z12init_displayv+0x5ec>
    130a:	5c 98       	cbi	0x0b, 4	; 11
    130c:	6f 93       	push	r22
    130e:	64 e0       	ldi	r22, 0x04	; 4
    1310:	6a 95       	dec	r22
    1312:	f1 f7       	brne	.-4      	; 0x1310 <_Z12init_displayv+0x600>
    1314:	6f 91       	pop	r22
    1316:	01 97       	sbiw	r24, 0x01	; 1
    1318:	c9 f7       	brne	.-14     	; 0x130c <_Z12init_displayv+0x5fc>
    131a:	6a b9       	out	0x0a, r22	; 10
    131c:	5b b9       	out	0x0b, r21	; 11
    131e:	44 b9       	out	0x04, r20	; 4
    1320:	35 b9       	out	0x05, r19	; 5
    1322:	5a b1       	in	r21, 0x0a	; 10
    1324:	57 98       	cbi	0x0a, 7	; 10
    1326:	5a 98       	cbi	0x0b, 2	; 11
    1328:	28 9a       	sbi	0x05, 0	; 5
    132a:	24 ec       	ldi	r18, 0xC4	; 196
    132c:	39 e0       	ldi	r19, 0x09	; 9
    132e:	81 e0       	ldi	r24, 0x01	; 1
    1330:	90 e0       	ldi	r25, 0x00	; 0
    1332:	fc 01       	movw	r30, r24
    1334:	6f 93       	push	r22
    1336:	64 e0       	ldi	r22, 0x04	; 4
    1338:	6a 95       	dec	r22
    133a:	f1 f7       	brne	.-4      	; 0x1338 <_Z12init_displayv+0x628>
    133c:	6f 91       	pop	r22
    133e:	31 97       	sbiw	r30, 0x01	; 1
    1340:	c9 f7       	brne	.-14     	; 0x1334 <_Z12init_displayv+0x624>
    1342:	5c 9a       	sbi	0x0b, 4	; 11
    1344:	fc 01       	movw	r30, r24
    1346:	6f 93       	push	r22
    1348:	64 e0       	ldi	r22, 0x04	; 4
    134a:	6a 95       	dec	r22
    134c:	f1 f7       	brne	.-4      	; 0x134a <_Z12init_displayv+0x63a>
    134e:	6f 91       	pop	r22
    1350:	31 97       	sbiw	r30, 0x01	; 1
    1352:	c9 f7       	brne	.-14     	; 0x1346 <_Z12init_displayv+0x636>
    1354:	49 b1       	in	r20, 0x09	; 9
    1356:	5c 98       	cbi	0x0b, 4	; 11
    1358:	fc 01       	movw	r30, r24
    135a:	6f 93       	push	r22
    135c:	64 e0       	ldi	r22, 0x04	; 4
    135e:	6a 95       	dec	r22
    1360:	f1 f7       	brne	.-4      	; 0x135e <_Z12init_displayv+0x64e>
    1362:	6f 91       	pop	r22
    1364:	31 97       	sbiw	r30, 0x01	; 1
    1366:	c9 f7       	brne	.-14     	; 0x135a <_Z12init_displayv+0x64a>
    1368:	5c 9a       	sbi	0x0b, 4	; 11
    136a:	fc 01       	movw	r30, r24
    136c:	6f 93       	push	r22
    136e:	64 e0       	ldi	r22, 0x04	; 4
    1370:	6a 95       	dec	r22
    1372:	f1 f7       	brne	.-4      	; 0x1370 <_Z12init_displayv+0x660>
    1374:	6f 91       	pop	r22
    1376:	31 97       	sbiw	r30, 0x01	; 1
    1378:	c9 f7       	brne	.-14     	; 0x136c <_Z12init_displayv+0x65c>
    137a:	5c 98       	cbi	0x0b, 4	; 11
    137c:	44 23       	and	r20, r20
    137e:	24 f4       	brge	.+8      	; 0x1388 <_Z12init_displayv+0x678>
    1380:	21 50       	subi	r18, 0x01	; 1
    1382:	31 09       	sbc	r19, r1
    1384:	09 f0       	breq	.+2      	; 0x1388 <_Z12init_displayv+0x678>
    1386:	d5 cf       	rjmp	.-86     	; 0x1332 <_Z12init_displayv+0x622>
    1388:	5a b9       	out	0x0a, r21	; 10
    138a:	44 b1       	in	r20, 0x04	; 4
    138c:	35 b1       	in	r19, 0x05	; 5
    138e:	6a b1       	in	r22, 0x0a	; 10
    1390:	5b b1       	in	r21, 0x0b	; 11
    1392:	28 98       	cbi	0x05, 0	; 5
    1394:	5a 98       	cbi	0x0b, 2	; 11
    1396:	84 b1       	in	r24, 0x04	; 4
    1398:	82 63       	ori	r24, 0x32	; 50
    139a:	84 b9       	out	0x04, r24	; 4
    139c:	57 9a       	sbi	0x0a, 7	; 10
    139e:	85 b1       	in	r24, 0x05	; 5
    13a0:	8d 7c       	andi	r24, 0xCD	; 205
    13a2:	85 b9       	out	0x05, r24	; 5
    13a4:	5f 98       	cbi	0x0b, 7	; 11
    13a6:	5c 9a       	sbi	0x0b, 4	; 11
    13a8:	81 e0       	ldi	r24, 0x01	; 1
    13aa:	90 e0       	ldi	r25, 0x00	; 0
    13ac:	fc 01       	movw	r30, r24
    13ae:	6f 93       	push	r22
    13b0:	64 e0       	ldi	r22, 0x04	; 4
    13b2:	6a 95       	dec	r22
    13b4:	f1 f7       	brne	.-4      	; 0x13b2 <_Z12init_displayv+0x6a2>
    13b6:	6f 91       	pop	r22
    13b8:	31 97       	sbiw	r30, 0x01	; 1
    13ba:	c9 f7       	brne	.-14     	; 0x13ae <_Z12init_displayv+0x69e>
    13bc:	5c 98       	cbi	0x0b, 4	; 11
    13be:	fc 01       	movw	r30, r24
    13c0:	6f 93       	push	r22
    13c2:	64 e0       	ldi	r22, 0x04	; 4
    13c4:	6a 95       	dec	r22
    13c6:	f1 f7       	brne	.-4      	; 0x13c4 <_Z12init_displayv+0x6b4>
    13c8:	6f 91       	pop	r22
    13ca:	31 97       	sbiw	r30, 0x01	; 1
    13cc:	c9 f7       	brne	.-14     	; 0x13c0 <_Z12init_displayv+0x6b0>
    13ce:	25 b1       	in	r18, 0x05	; 5
    13d0:	2d 7c       	andi	r18, 0xCD	; 205
    13d2:	20 63       	ori	r18, 0x30	; 48
    13d4:	25 b9       	out	0x05, r18	; 5
    13d6:	5f 98       	cbi	0x0b, 7	; 11
    13d8:	5c 9a       	sbi	0x0b, 4	; 11
    13da:	fc 01       	movw	r30, r24
    13dc:	6f 93       	push	r22
    13de:	64 e0       	ldi	r22, 0x04	; 4
    13e0:	6a 95       	dec	r22
    13e2:	f1 f7       	brne	.-4      	; 0x13e0 <_Z12init_displayv+0x6d0>
    13e4:	6f 91       	pop	r22
    13e6:	31 97       	sbiw	r30, 0x01	; 1
    13e8:	c9 f7       	brne	.-14     	; 0x13dc <_Z12init_displayv+0x6cc>
    13ea:	5c 98       	cbi	0x0b, 4	; 11
    13ec:	6f 93       	push	r22
    13ee:	64 e0       	ldi	r22, 0x04	; 4
    13f0:	6a 95       	dec	r22
    13f2:	f1 f7       	brne	.-4      	; 0x13f0 <_Z12init_displayv+0x6e0>
    13f4:	6f 91       	pop	r22
    13f6:	01 97       	sbiw	r24, 0x01	; 1
    13f8:	c9 f7       	brne	.-14     	; 0x13ec <_Z12init_displayv+0x6dc>
    13fa:	6a b9       	out	0x0a, r22	; 10
    13fc:	5b b9       	out	0x0b, r21	; 11
    13fe:	44 b9       	out	0x04, r20	; 4
    1400:	35 b9       	out	0x05, r19	; 5
    1402:	5a b1       	in	r21, 0x0a	; 10
    1404:	57 98       	cbi	0x0a, 7	; 10
    1406:	5a 98       	cbi	0x0b, 2	; 11
    1408:	28 9a       	sbi	0x05, 0	; 5
    140a:	24 ec       	ldi	r18, 0xC4	; 196
    140c:	39 e0       	ldi	r19, 0x09	; 9
    140e:	81 e0       	ldi	r24, 0x01	; 1
    1410:	90 e0       	ldi	r25, 0x00	; 0
    1412:	fc 01       	movw	r30, r24
    1414:	6f 93       	push	r22
    1416:	64 e0       	ldi	r22, 0x04	; 4
    1418:	6a 95       	dec	r22
    141a:	f1 f7       	brne	.-4      	; 0x1418 <_Z12init_displayv+0x708>
    141c:	6f 91       	pop	r22
    141e:	31 97       	sbiw	r30, 0x01	; 1
    1420:	c9 f7       	brne	.-14     	; 0x1414 <_Z12init_displayv+0x704>
    1422:	5c 9a       	sbi	0x0b, 4	; 11
    1424:	fc 01       	movw	r30, r24
    1426:	6f 93       	push	r22
    1428:	64 e0       	ldi	r22, 0x04	; 4
    142a:	6a 95       	dec	r22
    142c:	f1 f7       	brne	.-4      	; 0x142a <_Z12init_displayv+0x71a>
    142e:	6f 91       	pop	r22
    1430:	31 97       	sbiw	r30, 0x01	; 1
    1432:	c9 f7       	brne	.-14     	; 0x1426 <_Z12init_displayv+0x716>
    1434:	49 b1       	in	r20, 0x09	; 9
    1436:	5c 98       	cbi	0x0b, 4	; 11
    1438:	fc 01       	movw	r30, r24
    143a:	6f 93       	push	r22
    143c:	64 e0       	ldi	r22, 0x04	; 4
    143e:	6a 95       	dec	r22
    1440:	f1 f7       	brne	.-4      	; 0x143e <_Z12init_displayv+0x72e>
    1442:	6f 91       	pop	r22
    1444:	31 97       	sbiw	r30, 0x01	; 1
    1446:	c9 f7       	brne	.-14     	; 0x143a <_Z12init_displayv+0x72a>
    1448:	5c 9a       	sbi	0x0b, 4	; 11
    144a:	fc 01       	movw	r30, r24
    144c:	6f 93       	push	r22
    144e:	64 e0       	ldi	r22, 0x04	; 4
    1450:	6a 95       	dec	r22
    1452:	f1 f7       	brne	.-4      	; 0x1450 <_Z12init_displayv+0x740>
    1454:	6f 91       	pop	r22
    1456:	31 97       	sbiw	r30, 0x01	; 1
    1458:	c9 f7       	brne	.-14     	; 0x144c <_Z12init_displayv+0x73c>
    145a:	5c 98       	cbi	0x0b, 4	; 11
    145c:	44 23       	and	r20, r20
    145e:	24 f4       	brge	.+8      	; 0x1468 <_Z12init_displayv+0x758>
    1460:	21 50       	subi	r18, 0x01	; 1
    1462:	31 09       	sbc	r19, r1
    1464:	09 f0       	breq	.+2      	; 0x1468 <_Z12init_displayv+0x758>
    1466:	d5 cf       	rjmp	.-86     	; 0x1412 <_Z12init_displayv+0x702>
    1468:	5a b9       	out	0x0a, r21	; 10
    146a:	44 b1       	in	r20, 0x04	; 4
    146c:	35 b1       	in	r19, 0x05	; 5
    146e:	6a b1       	in	r22, 0x0a	; 10
    1470:	5b b1       	in	r21, 0x0b	; 11
    1472:	28 98       	cbi	0x05, 0	; 5
    1474:	5a 98       	cbi	0x0b, 2	; 11
    1476:	84 b1       	in	r24, 0x04	; 4
    1478:	82 63       	ori	r24, 0x32	; 50
    147a:	84 b9       	out	0x04, r24	; 4
    147c:	57 9a       	sbi	0x0a, 7	; 10
    147e:	85 b1       	in	r24, 0x05	; 5
    1480:	8d 7c       	andi	r24, 0xCD	; 205
    1482:	85 b9       	out	0x05, r24	; 5
    1484:	5f 98       	cbi	0x0b, 7	; 11
    1486:	5c 9a       	sbi	0x0b, 4	; 11
    1488:	81 e0       	ldi	r24, 0x01	; 1
    148a:	90 e0       	ldi	r25, 0x00	; 0
    148c:	fc 01       	movw	r30, r24
    148e:	6f 93       	push	r22
    1490:	64 e0       	ldi	r22, 0x04	; 4
    1492:	6a 95       	dec	r22
    1494:	f1 f7       	brne	.-4      	; 0x1492 <_Z12init_displayv+0x782>
    1496:	6f 91       	pop	r22
    1498:	31 97       	sbiw	r30, 0x01	; 1
    149a:	c9 f7       	brne	.-14     	; 0x148e <_Z12init_displayv+0x77e>
    149c:	5c 98       	cbi	0x0b, 4	; 11
    149e:	fc 01       	movw	r30, r24
    14a0:	6f 93       	push	r22
    14a2:	64 e0       	ldi	r22, 0x04	; 4
    14a4:	6a 95       	dec	r22
    14a6:	f1 f7       	brne	.-4      	; 0x14a4 <_Z12init_displayv+0x794>
    14a8:	6f 91       	pop	r22
    14aa:	31 97       	sbiw	r30, 0x01	; 1
    14ac:	c9 f7       	brne	.-14     	; 0x14a0 <_Z12init_displayv+0x790>
    14ae:	25 b1       	in	r18, 0x05	; 5
    14b0:	2d 7c       	andi	r18, 0xCD	; 205
    14b2:	20 62       	ori	r18, 0x20	; 32
    14b4:	25 b9       	out	0x05, r18	; 5
    14b6:	5f 9a       	sbi	0x0b, 7	; 11
    14b8:	5c 9a       	sbi	0x0b, 4	; 11
    14ba:	fc 01       	movw	r30, r24
    14bc:	6f 93       	push	r22
    14be:	64 e0       	ldi	r22, 0x04	; 4
    14c0:	6a 95       	dec	r22
    14c2:	f1 f7       	brne	.-4      	; 0x14c0 <_Z12init_displayv+0x7b0>
    14c4:	6f 91       	pop	r22
    14c6:	31 97       	sbiw	r30, 0x01	; 1
    14c8:	c9 f7       	brne	.-14     	; 0x14bc <_Z12init_displayv+0x7ac>
    14ca:	5c 98       	cbi	0x0b, 4	; 11
    14cc:	6f 93       	push	r22
    14ce:	64 e0       	ldi	r22, 0x04	; 4
    14d0:	6a 95       	dec	r22
    14d2:	f1 f7       	brne	.-4      	; 0x14d0 <_Z12init_displayv+0x7c0>
    14d4:	6f 91       	pop	r22
    14d6:	01 97       	sbiw	r24, 0x01	; 1
    14d8:	c9 f7       	brne	.-14     	; 0x14cc <_Z12init_displayv+0x7bc>
    14da:	6a b9       	out	0x0a, r22	; 10
    14dc:	5b b9       	out	0x0b, r21	; 11
    14de:	44 b9       	out	0x04, r20	; 4
    14e0:	35 b9       	out	0x05, r19	; 5
    14e2:	08 95       	ret

000014e4 <__vector_18>:
    14e4:	1f 92       	push	r1
    14e6:	0f 92       	push	r0
    14e8:	0f b6       	in	r0, 0x3f	; 63
    14ea:	0f 92       	push	r0
    14ec:	11 24       	eor	r1, r1
    14ee:	2f 93       	push	r18
    14f0:	3f 93       	push	r19
    14f2:	4f 93       	push	r20
    14f4:	5f 93       	push	r21
    14f6:	6f 93       	push	r22
    14f8:	7f 93       	push	r23
    14fa:	8f 93       	push	r24
    14fc:	9f 93       	push	r25
    14fe:	af 93       	push	r26
    1500:	bf 93       	push	r27
    1502:	ef 93       	push	r30
    1504:	ff 93       	push	r31
    1506:	90 91 c6 00 	lds	r25, 0x00C6	; 0x8000c6 <__DATA_REGION_ORIGIN__+0x66>
    150a:	80 91 26 01 	lds	r24, 0x0126	; 0x800126 <__data_end>
    150e:	e8 2f       	mov	r30, r24
    1510:	f0 e0       	ldi	r31, 0x00	; 0
    1512:	e6 5e       	subi	r30, 0xE6	; 230
    1514:	fe 4f       	sbci	r31, 0xFE	; 254
    1516:	20 81       	ld	r18, Z
    1518:	92 13       	cpse	r25, r18
    151a:	16 c0       	rjmp	.+44     	; 0x1548 <__vector_18+0x64>
    151c:	8f 5f       	subi	r24, 0xFF	; 255
    151e:	80 93 26 01 	sts	0x0126, r24	; 0x800126 <__data_end>
    1522:	84 30       	cpi	r24, 0x04	; 4
    1524:	99 f4       	brne	.+38     	; 0x154c <__vector_18+0x68>
    1526:	0e 94 85 00 	call	0x10a	; 0x10a <_Z12clean_motorsv>
    152a:	22 e0       	ldi	r18, 0x02	; 2
    152c:	40 e0       	ldi	r20, 0x00	; 0
    152e:	61 e0       	ldi	r22, 0x01	; 1
    1530:	84 ec       	ldi	r24, 0xC4	; 196
    1532:	91 e0       	ldi	r25, 0x01	; 1
    1534:	0e 94 d9 05 	call	0xbb2	; 0xbb2 <_ZN6detail7Display4sendEhhh>
    1538:	f8 94       	cli
    153a:	e0 e6       	ldi	r30, 0x60	; 96
    153c:	f0 e0       	ldi	r31, 0x00	; 0
    153e:	88 e1       	ldi	r24, 0x18	; 24
    1540:	80 83       	st	Z, r24
    1542:	88 e0       	ldi	r24, 0x08	; 8
    1544:	80 83       	st	Z, r24
    1546:	ff cf       	rjmp	.-2      	; 0x1546 <__vector_18+0x62>
    1548:	10 92 26 01 	sts	0x0126, r1	; 0x800126 <__data_end>
    154c:	e0 91 61 01 	lds	r30, 0x0161	; 0x800161 <rs232+0x21>
    1550:	81 e0       	ldi	r24, 0x01	; 1
    1552:	8e 0f       	add	r24, r30
    1554:	80 32       	cpi	r24, 0x20	; 32
    1556:	09 f4       	brne	.+2      	; 0x155a <__vector_18+0x76>
    1558:	80 e0       	ldi	r24, 0x00	; 0
    155a:	20 91 60 01 	lds	r18, 0x0160	; 0x800160 <rs232+0x20>
    155e:	28 17       	cp	r18, r24
    1560:	31 f0       	breq	.+12     	; 0x156e <__vector_18+0x8a>
    1562:	f0 e0       	ldi	r31, 0x00	; 0
    1564:	e0 5c       	subi	r30, 0xC0	; 192
    1566:	fe 4f       	sbci	r31, 0xFE	; 254
    1568:	90 83       	st	Z, r25
    156a:	80 93 61 01 	sts	0x0161, r24	; 0x800161 <rs232+0x21>
    156e:	ff 91       	pop	r31
    1570:	ef 91       	pop	r30
    1572:	bf 91       	pop	r27
    1574:	af 91       	pop	r26
    1576:	9f 91       	pop	r25
    1578:	8f 91       	pop	r24
    157a:	7f 91       	pop	r23
    157c:	6f 91       	pop	r22
    157e:	5f 91       	pop	r21
    1580:	4f 91       	pop	r20
    1582:	3f 91       	pop	r19
    1584:	2f 91       	pop	r18
    1586:	0f 90       	pop	r0
    1588:	0f be       	out	0x3f, r0	; 63
    158a:	0f 90       	pop	r0
    158c:	1f 90       	pop	r1
    158e:	18 95       	reti

00001590 <__vector_19>:
    1590:	1f 92       	push	r1
    1592:	0f 92       	push	r0
    1594:	0f b6       	in	r0, 0x3f	; 63
    1596:	0f 92       	push	r0
    1598:	11 24       	eor	r1, r1
    159a:	8f 93       	push	r24
    159c:	9f 93       	push	r25
    159e:	af 93       	push	r26
    15a0:	bf 93       	push	r27
    15a2:	ef 93       	push	r30
    15a4:	ff 93       	push	r31
    15a6:	90 91 c2 01 	lds	r25, 0x01C2	; 0x8001c2 <rs232+0x82>
    15aa:	80 91 c3 01 	lds	r24, 0x01C3	; 0x8001c3 <rs232+0x83>
    15ae:	98 17       	cp	r25, r24
    15b0:	89 f0       	breq	.+34     	; 0x15d4 <__vector_19+0x44>
    15b2:	a2 ec       	ldi	r26, 0xC2	; 194
    15b4:	b1 e0       	ldi	r27, 0x01	; 1
    15b6:	ec 91       	ld	r30, X
    15b8:	f0 e0       	ldi	r31, 0x00	; 0
    15ba:	e0 5c       	subi	r30, 0xC0	; 192
    15bc:	fe 4f       	sbci	r31, 0xFE	; 254
    15be:	92 a1       	ldd	r25, Z+34	; 0x22
    15c0:	8c 91       	ld	r24, X
    15c2:	8f 5f       	subi	r24, 0xFF	; 255
    15c4:	80 36       	cpi	r24, 0x60	; 96
    15c6:	09 f4       	brne	.+2      	; 0x15ca <__vector_19+0x3a>
    15c8:	80 e0       	ldi	r24, 0x00	; 0
    15ca:	80 93 c2 01 	sts	0x01C2, r24	; 0x8001c2 <rs232+0x82>
    15ce:	90 93 c6 00 	sts	0x00C6, r25	; 0x8000c6 <__DATA_REGION_ORIGIN__+0x66>
    15d2:	05 c0       	rjmp	.+10     	; 0x15de <__vector_19+0x4e>
    15d4:	e1 ec       	ldi	r30, 0xC1	; 193
    15d6:	f0 e0       	ldi	r31, 0x00	; 0
    15d8:	80 81       	ld	r24, Z
    15da:	8f 7d       	andi	r24, 0xDF	; 223
    15dc:	80 83       	st	Z, r24
    15de:	ff 91       	pop	r31
    15e0:	ef 91       	pop	r30
    15e2:	bf 91       	pop	r27
    15e4:	af 91       	pop	r26
    15e6:	9f 91       	pop	r25
    15e8:	8f 91       	pop	r24
    15ea:	0f 90       	pop	r0
    15ec:	0f be       	out	0x3f, r0	; 63
    15ee:	0f 90       	pop	r0
    15f0:	1f 90       	pop	r1
    15f2:	18 95       	reti

000015f4 <_Z12init_buttonsv>:
    15f4:	84 b1       	in	r24, 0x04	; 4
    15f6:	8d 7c       	andi	r24, 0xCD	; 205
    15f8:	84 b9       	out	0x04, r24	; 4
    15fa:	85 b1       	in	r24, 0x05	; 5
    15fc:	82 63       	ori	r24, 0x32	; 50
    15fe:	85 b9       	out	0x05, r24	; 5
    1600:	08 95       	ret

00001602 <_Z13waitForButtonh>:
    1602:	48 ee       	ldi	r20, 0xE8	; 232
    1604:	53 e0       	ldi	r21, 0x03	; 3
    1606:	93 b1       	in	r25, 0x03	; 3
    1608:	98 23       	and	r25, r24
    160a:	e9 f7       	brne	.-6      	; 0x1606 <_Z13waitForButtonh+0x4>
    160c:	25 e0       	ldi	r18, 0x05	; 5
    160e:	30 e0       	ldi	r19, 0x00	; 0
    1610:	fa 01       	movw	r30, r20
    1612:	6f 93       	push	r22
    1614:	64 e0       	ldi	r22, 0x04	; 4
    1616:	6a 95       	dec	r22
    1618:	f1 f7       	brne	.-4      	; 0x1616 <_Z13waitForButtonh+0x14>
    161a:	6f 91       	pop	r22
    161c:	31 97       	sbiw	r30, 0x01	; 1
    161e:	c9 f7       	brne	.-14     	; 0x1612 <_Z13waitForButtonh+0x10>
    1620:	21 50       	subi	r18, 0x01	; 1
    1622:	31 09       	sbc	r19, r1
    1624:	a9 f7       	brne	.-22     	; 0x1610 <_Z13waitForButtonh+0xe>
    1626:	93 b1       	in	r25, 0x03	; 3
    1628:	98 23       	and	r25, r24
    162a:	69 f7       	brne	.-38     	; 0x1606 <_Z13waitForButtonh+0x4>
    162c:	22 e3       	ldi	r18, 0x32	; 50
    162e:	30 e0       	ldi	r19, 0x00	; 0
    1630:	48 ee       	ldi	r20, 0xE8	; 232
    1632:	53 e0       	ldi	r21, 0x03	; 3
    1634:	fa 01       	movw	r30, r20
    1636:	6f 93       	push	r22
    1638:	64 e0       	ldi	r22, 0x04	; 4
    163a:	6a 95       	dec	r22
    163c:	f1 f7       	brne	.-4      	; 0x163a <_Z13waitForButtonh+0x38>
    163e:	6f 91       	pop	r22
    1640:	31 97       	sbiw	r30, 0x01	; 1
    1642:	c9 f7       	brne	.-14     	; 0x1636 <_Z13waitForButtonh+0x34>
    1644:	21 50       	subi	r18, 0x01	; 1
    1646:	31 09       	sbc	r19, r1
    1648:	a9 f7       	brne	.-22     	; 0x1634 <_Z13waitForButtonh+0x32>
    164a:	48 ee       	ldi	r20, 0xE8	; 232
    164c:	53 e0       	ldi	r21, 0x03	; 3
    164e:	93 b1       	in	r25, 0x03	; 3
    1650:	98 23       	and	r25, r24
    1652:	e9 f3       	breq	.-6      	; 0x164e <_Z13waitForButtonh+0x4c>
    1654:	25 e0       	ldi	r18, 0x05	; 5
    1656:	30 e0       	ldi	r19, 0x00	; 0
    1658:	fa 01       	movw	r30, r20
    165a:	6f 93       	push	r22
    165c:	64 e0       	ldi	r22, 0x04	; 4
    165e:	6a 95       	dec	r22
    1660:	f1 f7       	brne	.-4      	; 0x165e <_Z13waitForButtonh+0x5c>
    1662:	6f 91       	pop	r22
    1664:	31 97       	sbiw	r30, 0x01	; 1
    1666:	c9 f7       	brne	.-14     	; 0x165a <_Z13waitForButtonh+0x58>
    1668:	21 50       	subi	r18, 0x01	; 1
    166a:	31 09       	sbc	r19, r1
    166c:	a9 f7       	brne	.-22     	; 0x1658 <_Z13waitForButtonh+0x56>
    166e:	93 b1       	in	r25, 0x03	; 3
    1670:	98 23       	and	r25, r24
    1672:	69 f3       	breq	.-38     	; 0x164e <_Z13waitForButtonh+0x4c>
    1674:	08 95       	ret

00001676 <_Z4initv>:
    1676:	0e 94 5f 00 	call	0xbe	; 0xbe <_Z11init_buzzerv>
    167a:	0e 94 69 00 	call	0xd2	; 0xd2 <_Z11init_motorsv>
    167e:	0e 94 3e 04 	call	0x87c	; 0x87c <_Z12init_sensorsv>
    1682:	0e 94 88 06 	call	0xd10	; 0xd10 <_Z12init_displayv>
    1686:	82 e0       	ldi	r24, 0x02	; 2
    1688:	80 93 c0 00 	sts	0x00C0, r24	; 0x8000c0 <__DATA_REGION_ORIGIN__+0x60>
    168c:	86 e0       	ldi	r24, 0x06	; 6
    168e:	80 93 c2 00 	sts	0x00C2, r24	; 0x8000c2 <__DATA_REGION_ORIGIN__+0x62>
    1692:	10 92 c5 00 	sts	0x00C5, r1	; 0x8000c5 <__DATA_REGION_ORIGIN__+0x65>
    1696:	85 e1       	ldi	r24, 0x15	; 21
    1698:	80 93 c4 00 	sts	0x00C4, r24	; 0x8000c4 <__DATA_REGION_ORIGIN__+0x64>
    169c:	88 e9       	ldi	r24, 0x98	; 152
    169e:	80 93 c1 00 	sts	0x00C1, r24	; 0x8000c1 <__DATA_REGION_ORIGIN__+0x61>
    16a2:	0e 94 fa 0a 	call	0x15f4	; 0x15f4 <_Z12init_buttonsv>
    16a6:	08 95       	ret

000016a8 <_Z6white_v>:
    16a8:	f8 94       	cli
    16aa:	80 91 d9 01 	lds	r24, 0x01D9	; 0x8001d9 <g_sensors>
    16ae:	90 91 da 01 	lds	r25, 0x01DA	; 0x8001da <g_sensors+0x1>
    16b2:	81 15       	cp	r24, r1
    16b4:	94 40       	sbci	r25, 0x04	; 4
    16b6:	51 f4       	brne	.+20     	; 0x16cc <_Z6white_v+0x24>
    16b8:	e9 ed       	ldi	r30, 0xD9	; 217
    16ba:	f1 e0       	ldi	r31, 0x01	; 1
    16bc:	78 94       	sei
    16be:	00 00       	nop
    16c0:	f8 94       	cli
    16c2:	80 81       	ld	r24, Z
    16c4:	91 81       	ldd	r25, Z+1	; 0x01
    16c6:	81 15       	cp	r24, r1
    16c8:	94 40       	sbci	r25, 0x04	; 4
    16ca:	c1 f3       	breq	.-16     	; 0x16bc <_Z6white_v+0x14>
    16cc:	a0 91 d9 01 	lds	r26, 0x01D9	; 0x8001d9 <g_sensors>
    16d0:	b0 91 da 01 	lds	r27, 0x01DA	; 0x8001da <g_sensors+0x1>
    16d4:	78 94       	sei
    16d6:	00 00       	nop
    16d8:	20 91 c5 01 	lds	r18, 0x01C5	; 0x8001c5 <g_calibratedMaximum>
    16dc:	30 91 c6 01 	lds	r19, 0x01C6	; 0x8001c6 <g_calibratedMaximum+0x1>
    16e0:	80 91 cf 01 	lds	r24, 0x01CF	; 0x8001cf <g_calibratedMinimum>
    16e4:	90 91 d0 01 	lds	r25, 0x01D0	; 0x8001d0 <g_calibratedMinimum+0x1>
    16e8:	a9 01       	movw	r20, r18
    16ea:	48 1b       	sub	r20, r24
    16ec:	59 0b       	sbc	r21, r25
    16ee:	89 f0       	breq	.+34     	; 0x1712 <_Z6white_v+0x6a>
    16f0:	80 91 cf 01 	lds	r24, 0x01CF	; 0x8001cf <g_calibratedMinimum>
    16f4:	90 91 d0 01 	lds	r25, 0x01D0	; 0x8001d0 <g_calibratedMinimum+0x1>
    16f8:	a8 1b       	sub	r26, r24
    16fa:	b9 0b       	sbc	r27, r25
    16fc:	28 ee       	ldi	r18, 0xE8	; 232
    16fe:	33 e0       	ldi	r19, 0x03	; 3
    1700:	0e 94 95 10 	call	0x212a	; 0x212a <__usmulhisi3>
    1704:	9a 01       	movw	r18, r20
    1706:	55 0f       	add	r21, r21
    1708:	44 0b       	sbc	r20, r20
    170a:	55 0b       	sbc	r21, r21
    170c:	0e 94 67 10 	call	0x20ce	; 0x20ce <__divmodsi4>
    1710:	d9 01       	movw	r26, r18
    1712:	a1 30       	cpi	r26, 0x01	; 1
    1714:	84 e0       	ldi	r24, 0x04	; 4
    1716:	b8 07       	cpc	r27, r24
    1718:	14 f0       	brlt	.+4      	; 0x171e <_Z6white_v+0x76>
    171a:	a0 e0       	ldi	r26, 0x00	; 0
    171c:	b4 e0       	ldi	r27, 0x04	; 4
    171e:	bb 23       	and	r27, r27
    1720:	14 f4       	brge	.+4      	; 0x1726 <_Z6white_v+0x7e>
    1722:	a0 e0       	ldi	r26, 0x00	; 0
    1724:	b0 e0       	ldi	r27, 0x00	; 0
    1726:	b0 93 3b 01 	sts	0x013B, r27	; 0x80013b <senzor0+0x1>
    172a:	a0 93 3a 01 	sts	0x013A, r26	; 0x80013a <senzor0>
    172e:	f8 94       	cli
    1730:	80 91 db 01 	lds	r24, 0x01DB	; 0x8001db <g_sensors+0x2>
    1734:	90 91 dc 01 	lds	r25, 0x01DC	; 0x8001dc <g_sensors+0x3>
    1738:	81 15       	cp	r24, r1
    173a:	94 40       	sbci	r25, 0x04	; 4
    173c:	51 f4       	brne	.+20     	; 0x1752 <_Z6white_v+0xaa>
    173e:	e9 ed       	ldi	r30, 0xD9	; 217
    1740:	f1 e0       	ldi	r31, 0x01	; 1
    1742:	78 94       	sei
    1744:	00 00       	nop
    1746:	f8 94       	cli
    1748:	82 81       	ldd	r24, Z+2	; 0x02
    174a:	93 81       	ldd	r25, Z+3	; 0x03
    174c:	81 15       	cp	r24, r1
    174e:	94 40       	sbci	r25, 0x04	; 4
    1750:	c1 f3       	breq	.-16     	; 0x1742 <_Z6white_v+0x9a>
    1752:	a0 91 db 01 	lds	r26, 0x01DB	; 0x8001db <g_sensors+0x2>
    1756:	b0 91 dc 01 	lds	r27, 0x01DC	; 0x8001dc <g_sensors+0x3>
    175a:	78 94       	sei
    175c:	00 00       	nop
    175e:	20 91 c7 01 	lds	r18, 0x01C7	; 0x8001c7 <g_calibratedMaximum+0x2>
    1762:	30 91 c8 01 	lds	r19, 0x01C8	; 0x8001c8 <g_calibratedMaximum+0x3>
    1766:	80 91 d1 01 	lds	r24, 0x01D1	; 0x8001d1 <g_calibratedMinimum+0x2>
    176a:	90 91 d2 01 	lds	r25, 0x01D2	; 0x8001d2 <g_calibratedMinimum+0x3>
    176e:	a9 01       	movw	r20, r18
    1770:	48 1b       	sub	r20, r24
    1772:	59 0b       	sbc	r21, r25
    1774:	89 f0       	breq	.+34     	; 0x1798 <_Z6white_v+0xf0>
    1776:	80 91 d1 01 	lds	r24, 0x01D1	; 0x8001d1 <g_calibratedMinimum+0x2>
    177a:	90 91 d2 01 	lds	r25, 0x01D2	; 0x8001d2 <g_calibratedMinimum+0x3>
    177e:	a8 1b       	sub	r26, r24
    1780:	b9 0b       	sbc	r27, r25
    1782:	28 ee       	ldi	r18, 0xE8	; 232
    1784:	33 e0       	ldi	r19, 0x03	; 3
    1786:	0e 94 95 10 	call	0x212a	; 0x212a <__usmulhisi3>
    178a:	9a 01       	movw	r18, r20
    178c:	55 0f       	add	r21, r21
    178e:	44 0b       	sbc	r20, r20
    1790:	55 0b       	sbc	r21, r21
    1792:	0e 94 67 10 	call	0x20ce	; 0x20ce <__divmodsi4>
    1796:	d9 01       	movw	r26, r18
    1798:	a1 30       	cpi	r26, 0x01	; 1
    179a:	84 e0       	ldi	r24, 0x04	; 4
    179c:	b8 07       	cpc	r27, r24
    179e:	14 f0       	brlt	.+4      	; 0x17a4 <_Z6white_v+0xfc>
    17a0:	a0 e0       	ldi	r26, 0x00	; 0
    17a2:	b4 e0       	ldi	r27, 0x04	; 4
    17a4:	bb 23       	and	r27, r27
    17a6:	14 f4       	brge	.+4      	; 0x17ac <_Z6white_v+0x104>
    17a8:	a0 e0       	ldi	r26, 0x00	; 0
    17aa:	b0 e0       	ldi	r27, 0x00	; 0
    17ac:	b0 93 39 01 	sts	0x0139, r27	; 0x800139 <senzor1+0x1>
    17b0:	a0 93 38 01 	sts	0x0138, r26	; 0x800138 <senzor1>
    17b4:	f8 94       	cli
    17b6:	80 91 dd 01 	lds	r24, 0x01DD	; 0x8001dd <g_sensors+0x4>
    17ba:	90 91 de 01 	lds	r25, 0x01DE	; 0x8001de <g_sensors+0x5>
    17be:	81 15       	cp	r24, r1
    17c0:	94 40       	sbci	r25, 0x04	; 4
    17c2:	51 f4       	brne	.+20     	; 0x17d8 <_Z6white_v+0x130>
    17c4:	e9 ed       	ldi	r30, 0xD9	; 217
    17c6:	f1 e0       	ldi	r31, 0x01	; 1
    17c8:	78 94       	sei
    17ca:	00 00       	nop
    17cc:	f8 94       	cli
    17ce:	84 81       	ldd	r24, Z+4	; 0x04
    17d0:	95 81       	ldd	r25, Z+5	; 0x05
    17d2:	81 15       	cp	r24, r1
    17d4:	94 40       	sbci	r25, 0x04	; 4
    17d6:	c1 f3       	breq	.-16     	; 0x17c8 <_Z6white_v+0x120>
    17d8:	a0 91 dd 01 	lds	r26, 0x01DD	; 0x8001dd <g_sensors+0x4>
    17dc:	b0 91 de 01 	lds	r27, 0x01DE	; 0x8001de <g_sensors+0x5>
    17e0:	78 94       	sei
    17e2:	00 00       	nop
    17e4:	20 91 c9 01 	lds	r18, 0x01C9	; 0x8001c9 <g_calibratedMaximum+0x4>
    17e8:	30 91 ca 01 	lds	r19, 0x01CA	; 0x8001ca <g_calibratedMaximum+0x5>
    17ec:	80 91 d3 01 	lds	r24, 0x01D3	; 0x8001d3 <g_calibratedMinimum+0x4>
    17f0:	90 91 d4 01 	lds	r25, 0x01D4	; 0x8001d4 <g_calibratedMinimum+0x5>
    17f4:	a9 01       	movw	r20, r18
    17f6:	48 1b       	sub	r20, r24
    17f8:	59 0b       	sbc	r21, r25
    17fa:	89 f0       	breq	.+34     	; 0x181e <_Z6white_v+0x176>
    17fc:	80 91 d3 01 	lds	r24, 0x01D3	; 0x8001d3 <g_calibratedMinimum+0x4>
    1800:	90 91 d4 01 	lds	r25, 0x01D4	; 0x8001d4 <g_calibratedMinimum+0x5>
    1804:	a8 1b       	sub	r26, r24
    1806:	b9 0b       	sbc	r27, r25
    1808:	28 ee       	ldi	r18, 0xE8	; 232
    180a:	33 e0       	ldi	r19, 0x03	; 3
    180c:	0e 94 95 10 	call	0x212a	; 0x212a <__usmulhisi3>
    1810:	9a 01       	movw	r18, r20
    1812:	55 0f       	add	r21, r21
    1814:	44 0b       	sbc	r20, r20
    1816:	55 0b       	sbc	r21, r21
    1818:	0e 94 67 10 	call	0x20ce	; 0x20ce <__divmodsi4>
    181c:	d9 01       	movw	r26, r18
    181e:	a1 30       	cpi	r26, 0x01	; 1
    1820:	84 e0       	ldi	r24, 0x04	; 4
    1822:	b8 07       	cpc	r27, r24
    1824:	14 f0       	brlt	.+4      	; 0x182a <_Z6white_v+0x182>
    1826:	a0 e0       	ldi	r26, 0x00	; 0
    1828:	b4 e0       	ldi	r27, 0x04	; 4
    182a:	bb 23       	and	r27, r27
    182c:	14 f4       	brge	.+4      	; 0x1832 <_Z6white_v+0x18a>
    182e:	a0 e0       	ldi	r26, 0x00	; 0
    1830:	b0 e0       	ldi	r27, 0x00	; 0
    1832:	b0 93 37 01 	sts	0x0137, r27	; 0x800137 <senzor2+0x1>
    1836:	a0 93 36 01 	sts	0x0136, r26	; 0x800136 <senzor2>
    183a:	f8 94       	cli
    183c:	80 91 df 01 	lds	r24, 0x01DF	; 0x8001df <g_sensors+0x6>
    1840:	90 91 e0 01 	lds	r25, 0x01E0	; 0x8001e0 <g_sensors+0x7>
    1844:	81 15       	cp	r24, r1
    1846:	94 40       	sbci	r25, 0x04	; 4
    1848:	51 f4       	brne	.+20     	; 0x185e <_Z6white_v+0x1b6>
    184a:	e9 ed       	ldi	r30, 0xD9	; 217
    184c:	f1 e0       	ldi	r31, 0x01	; 1
    184e:	78 94       	sei
    1850:	00 00       	nop
    1852:	f8 94       	cli
    1854:	86 81       	ldd	r24, Z+6	; 0x06
    1856:	97 81       	ldd	r25, Z+7	; 0x07
    1858:	81 15       	cp	r24, r1
    185a:	94 40       	sbci	r25, 0x04	; 4
    185c:	c1 f3       	breq	.-16     	; 0x184e <_Z6white_v+0x1a6>
    185e:	a0 91 df 01 	lds	r26, 0x01DF	; 0x8001df <g_sensors+0x6>
    1862:	b0 91 e0 01 	lds	r27, 0x01E0	; 0x8001e0 <g_sensors+0x7>
    1866:	78 94       	sei
    1868:	00 00       	nop
    186a:	20 91 cb 01 	lds	r18, 0x01CB	; 0x8001cb <g_calibratedMaximum+0x6>
    186e:	30 91 cc 01 	lds	r19, 0x01CC	; 0x8001cc <g_calibratedMaximum+0x7>
    1872:	80 91 d5 01 	lds	r24, 0x01D5	; 0x8001d5 <g_calibratedMinimum+0x6>
    1876:	90 91 d6 01 	lds	r25, 0x01D6	; 0x8001d6 <g_calibratedMinimum+0x7>
    187a:	a9 01       	movw	r20, r18
    187c:	48 1b       	sub	r20, r24
    187e:	59 0b       	sbc	r21, r25
    1880:	89 f0       	breq	.+34     	; 0x18a4 <_Z6white_v+0x1fc>
    1882:	80 91 d5 01 	lds	r24, 0x01D5	; 0x8001d5 <g_calibratedMinimum+0x6>
    1886:	90 91 d6 01 	lds	r25, 0x01D6	; 0x8001d6 <g_calibratedMinimum+0x7>
    188a:	a8 1b       	sub	r26, r24
    188c:	b9 0b       	sbc	r27, r25
    188e:	28 ee       	ldi	r18, 0xE8	; 232
    1890:	33 e0       	ldi	r19, 0x03	; 3
    1892:	0e 94 95 10 	call	0x212a	; 0x212a <__usmulhisi3>
    1896:	9a 01       	movw	r18, r20
    1898:	55 0f       	add	r21, r21
    189a:	44 0b       	sbc	r20, r20
    189c:	55 0b       	sbc	r21, r21
    189e:	0e 94 67 10 	call	0x20ce	; 0x20ce <__divmodsi4>
    18a2:	d9 01       	movw	r26, r18
    18a4:	a1 30       	cpi	r26, 0x01	; 1
    18a6:	84 e0       	ldi	r24, 0x04	; 4
    18a8:	b8 07       	cpc	r27, r24
    18aa:	14 f0       	brlt	.+4      	; 0x18b0 <_Z6white_v+0x208>
    18ac:	a0 e0       	ldi	r26, 0x00	; 0
    18ae:	b4 e0       	ldi	r27, 0x04	; 4
    18b0:	bb 23       	and	r27, r27
    18b2:	14 f4       	brge	.+4      	; 0x18b8 <_Z6white_v+0x210>
    18b4:	a0 e0       	ldi	r26, 0x00	; 0
    18b6:	b0 e0       	ldi	r27, 0x00	; 0
    18b8:	b0 93 35 01 	sts	0x0135, r27	; 0x800135 <senzor3+0x1>
    18bc:	a0 93 34 01 	sts	0x0134, r26	; 0x800134 <senzor3>
    18c0:	f8 94       	cli
    18c2:	80 91 e1 01 	lds	r24, 0x01E1	; 0x8001e1 <g_sensors+0x8>
    18c6:	90 91 e2 01 	lds	r25, 0x01E2	; 0x8001e2 <g_sensors+0x9>
    18ca:	81 15       	cp	r24, r1
    18cc:	94 40       	sbci	r25, 0x04	; 4
    18ce:	51 f4       	brne	.+20     	; 0x18e4 <_Z6white_v+0x23c>
    18d0:	e9 ed       	ldi	r30, 0xD9	; 217
    18d2:	f1 e0       	ldi	r31, 0x01	; 1
    18d4:	78 94       	sei
    18d6:	00 00       	nop
    18d8:	f8 94       	cli
    18da:	80 85       	ldd	r24, Z+8	; 0x08
    18dc:	91 85       	ldd	r25, Z+9	; 0x09
    18de:	81 15       	cp	r24, r1
    18e0:	94 40       	sbci	r25, 0x04	; 4
    18e2:	c1 f3       	breq	.-16     	; 0x18d4 <_Z6white_v+0x22c>
    18e4:	a0 91 e1 01 	lds	r26, 0x01E1	; 0x8001e1 <g_sensors+0x8>
    18e8:	b0 91 e2 01 	lds	r27, 0x01E2	; 0x8001e2 <g_sensors+0x9>
    18ec:	78 94       	sei
    18ee:	00 00       	nop
    18f0:	20 91 cd 01 	lds	r18, 0x01CD	; 0x8001cd <g_calibratedMaximum+0x8>
    18f4:	30 91 ce 01 	lds	r19, 0x01CE	; 0x8001ce <g_calibratedMaximum+0x9>
    18f8:	80 91 d7 01 	lds	r24, 0x01D7	; 0x8001d7 <g_calibratedMinimum+0x8>
    18fc:	90 91 d8 01 	lds	r25, 0x01D8	; 0x8001d8 <g_calibratedMinimum+0x9>
    1900:	a9 01       	movw	r20, r18
    1902:	48 1b       	sub	r20, r24
    1904:	59 0b       	sbc	r21, r25
    1906:	89 f0       	breq	.+34     	; 0x192a <_Z6white_v+0x282>
    1908:	80 91 d7 01 	lds	r24, 0x01D7	; 0x8001d7 <g_calibratedMinimum+0x8>
    190c:	90 91 d8 01 	lds	r25, 0x01D8	; 0x8001d8 <g_calibratedMinimum+0x9>
    1910:	a8 1b       	sub	r26, r24
    1912:	b9 0b       	sbc	r27, r25
    1914:	28 ee       	ldi	r18, 0xE8	; 232
    1916:	33 e0       	ldi	r19, 0x03	; 3
    1918:	0e 94 95 10 	call	0x212a	; 0x212a <__usmulhisi3>
    191c:	9a 01       	movw	r18, r20
    191e:	55 0f       	add	r21, r21
    1920:	44 0b       	sbc	r20, r20
    1922:	55 0b       	sbc	r21, r21
    1924:	0e 94 67 10 	call	0x20ce	; 0x20ce <__divmodsi4>
    1928:	d9 01       	movw	r26, r18
    192a:	a1 30       	cpi	r26, 0x01	; 1
    192c:	84 e0       	ldi	r24, 0x04	; 4
    192e:	b8 07       	cpc	r27, r24
    1930:	14 f0       	brlt	.+4      	; 0x1936 <_Z6white_v+0x28e>
    1932:	a0 e0       	ldi	r26, 0x00	; 0
    1934:	b4 e0       	ldi	r27, 0x04	; 4
    1936:	bb 23       	and	r27, r27
    1938:	14 f4       	brge	.+4      	; 0x193e <_Z6white_v+0x296>
    193a:	a0 e0       	ldi	r26, 0x00	; 0
    193c:	b0 e0       	ldi	r27, 0x00	; 0
    193e:	b0 93 33 01 	sts	0x0133, r27	; 0x800133 <senzor4+0x1>
    1942:	a0 93 32 01 	sts	0x0132, r26	; 0x800132 <senzor4>
    1946:	20 91 3a 01 	lds	r18, 0x013A	; 0x80013a <senzor0>
    194a:	30 91 3b 01 	lds	r19, 0x013B	; 0x80013b <senzor0+0x1>
    194e:	80 91 38 01 	lds	r24, 0x0138	; 0x800138 <senzor1>
    1952:	90 91 39 01 	lds	r25, 0x0139	; 0x800139 <senzor1+0x1>
    1956:	82 0f       	add	r24, r18
    1958:	93 1f       	adc	r25, r19
    195a:	20 91 36 01 	lds	r18, 0x0136	; 0x800136 <senzor2>
    195e:	30 91 37 01 	lds	r19, 0x0137	; 0x800137 <senzor2+0x1>
    1962:	82 0f       	add	r24, r18
    1964:	93 1f       	adc	r25, r19
    1966:	20 91 34 01 	lds	r18, 0x0134	; 0x800134 <senzor3>
    196a:	30 91 35 01 	lds	r19, 0x0135	; 0x800135 <senzor3+0x1>
    196e:	82 0f       	add	r24, r18
    1970:	93 1f       	adc	r25, r19
    1972:	8a 0f       	add	r24, r26
    1974:	9b 1f       	adc	r25, r27
    1976:	08 95       	ret

00001978 <_Z5whitev>:
    1978:	cf 93       	push	r28
    197a:	df 93       	push	r29
    197c:	88 e2       	ldi	r24, 0x28	; 40
    197e:	90 e0       	ldi	r25, 0x00	; 0
    1980:	0e 94 cd 00 	call	0x19a	; 0x19a <_Z12setLeftMotori>
    1984:	88 e2       	ldi	r24, 0x28	; 40
    1986:	90 e0       	ldi	r25, 0x00	; 0
    1988:	0e 94 be 00 	call	0x17c	; 0x17c <_Z13setRightMotori>
    198c:	c0 e2       	ldi	r28, 0x20	; 32
    198e:	d3 e0       	ldi	r29, 0x03	; 3
    1990:	10 92 00 01 	sts	0x0100, r1	; 0x800100 <__data_start>
    1994:	80 e0       	ldi	r24, 0x00	; 0
    1996:	0e 94 81 03 	call	0x702	; 0x702 <_Z10getLinePosb>
    199a:	90 93 2d 01 	sts	0x012D, r25	; 0x80012d <position+0x1>
    199e:	80 93 2c 01 	sts	0x012C, r24	; 0x80012c <position>
    19a2:	0e 94 54 0b 	call	0x16a8	; 0x16a8 <_Z6white_v>
    19a6:	40 97       	sbiw	r24, 0x10	; 16
    19a8:	24 f0       	brlt	.+8      	; 0x19b2 <_Z5whitev+0x3a>
    19aa:	81 e0       	ldi	r24, 0x01	; 1
    19ac:	80 93 2b 01 	sts	0x012B, r24	; 0x80012b <black>
    19b0:	02 c0       	rjmp	.+4      	; 0x19b6 <_Z5whitev+0x3e>
    19b2:	21 97       	sbiw	r28, 0x01	; 1
    19b4:	69 f7       	brne	.-38     	; 0x1990 <_Z5whitev+0x18>
    19b6:	df 91       	pop	r29
    19b8:	cf 91       	pop	r28
    19ba:	08 95       	ret

000019bc <_ZN6detail7Display12printNumToXYIjEEvT_hh>:
    {
        gotoXY(x, y);
        print(str);
    }
    template <typename T>
    inline void printNumToXY(T num, uint8_t x, uint8_t y)
    19bc:	af 92       	push	r10
    19be:	bf 92       	push	r11
    19c0:	cf 92       	push	r12
    19c2:	df 92       	push	r13
    19c4:	ef 92       	push	r14
    19c6:	ff 92       	push	r15
    19c8:	0f 93       	push	r16
    19ca:	1f 93       	push	r17
    19cc:	cf 93       	push	r28
    19ce:	df 93       	push	r29
    19d0:	cd b7       	in	r28, 0x3d	; 61
    19d2:	de b7       	in	r29, 0x3e	; 62
    19d4:	a0 97       	sbiw	r28, 0x20	; 32
    19d6:	0f b6       	in	r0, 0x3f	; 63
    19d8:	f8 94       	cli
    19da:	de bf       	out	0x3e, r29	; 62
    19dc:	0f be       	out	0x3f, r0	; 63
    19de:	cd bf       	out	0x3d, r28	; 61
    19e0:	6b 01       	movw	r12, r22
        // The actual memory locations are 0x00, and 0x40, but since
        // D7 needs to be high in order to set a new memory location, we can go
        // ahead and make the seventh bit of our memory location bytes to 1,
        // which makes the numbers 0x80 and 0xC0:

        unsigned char line_mem[] = {0x80, 0xC0, 0x94, 0xD4};
    19e2:	80 e8       	ldi	r24, 0x80	; 128
    19e4:	89 83       	std	Y+1, r24	; 0x01
    19e6:	80 ec       	ldi	r24, 0xC0	; 192
    19e8:	8a 83       	std	Y+2, r24	; 0x02
    19ea:	84 e9       	ldi	r24, 0x94	; 148
    19ec:	8b 83       	std	Y+3, r24	; 0x03
    19ee:	84 ed       	ldi	r24, 0xD4	; 212
    19f0:	8c 83       	std	Y+4, r24	; 0x04

        // Grab the location in the LCD's memory of the start of line y,
        // and add X to it to get the right character location.
        send_cmd(line_mem[y] + x);
    19f2:	fe 01       	movw	r30, r28
    19f4:	e2 0f       	add	r30, r18
    19f6:	f1 1d       	adc	r31, r1
    19f8:	81 81       	ldd	r24, Z+1	; 0x01
    19fa:	48 0f       	add	r20, r24
    void busyWait()
    {
        uint8_t temp_ddr, data;

        // Save our DDR information
        temp_ddr = LCD_BF_DDR;
    19fc:	6a b1       	in	r22, 0x0a	; 10

        // Set up the data DDR for input
        LCD_BF_DDR &= ~LCD_BF_MASK;
    19fe:	57 98       	cbi	0x0a, 7	; 10

        // Set up RS and RW to read the state of the LCD's busy flag
        LCD_RS_PORT &= ~(1 << LCD_RS);
    1a00:	5a 98       	cbi	0x0b, 2	; 11
        LCD_RW_PORT |= 1 << LCD_RW;
    1a02:	28 9a       	sbi	0x05, 0	; 5
    1a04:	24 ec       	ldi	r18, 0xC4	; 196
    1a06:	39 e0       	ldi	r19, 0x09	; 9
        "   pop  r22"     "\n\t"   
        "   sbiw %0, 1"   "\n\t"
        "   brne 1b"
        : "=w" ( microseconds )  
        : "0" ( microseconds )
    );  
    1a08:	81 e0       	ldi	r24, 0x01	; 1
    1a0a:	90 e0       	ldi	r25, 0x00	; 0
    1a0c:	fc 01       	movw	r30, r24
    1a0e:	6f 93       	push	r22
    1a10:	64 e0       	ldi	r22, 0x04	; 4
    1a12:	6a 95       	dec	r22
    1a14:	f1 f7       	brne	.-4      	; 0x1a12 <_ZN6detail7Display12printNumToXYIjEEvT_hh+0x56>
    1a16:	6f 91       	pop	r22
    1a18:	31 97       	sbiw	r30, 0x01	; 1
    1a1a:	c9 f7       	brne	.-14     	; 0x1a0e <_ZN6detail7Display12printNumToXYIjEEvT_hh+0x52>
        do
        {
            delayMicroseconds(1);
            
            // Bring E high
            LCD_E_PORT |= 1 << LCD_E;
    1a1c:	5c 9a       	sbi	0x0b, 4	; 11
        "   pop  r22"     "\n\t"   
        "   sbiw %0, 1"   "\n\t"
        "   brne 1b"
        : "=w" ( microseconds )  
        : "0" ( microseconds )
    );  
    1a1e:	fc 01       	movw	r30, r24
    1a20:	6f 93       	push	r22
    1a22:	64 e0       	ldi	r22, 0x04	; 4
    1a24:	6a 95       	dec	r22
    1a26:	f1 f7       	brne	.-4      	; 0x1a24 <_ZN6detail7Display12printNumToXYIjEEvT_hh+0x68>
    1a28:	6f 91       	pop	r22
    1a2a:	31 97       	sbiw	r30, 0x01	; 1
    1a2c:	c9 f7       	brne	.-14     	; 0x1a20 <_ZN6detail7Display12printNumToXYIjEEvT_hh+0x64>

            // Wait at least 120ns (1us is excessive)
            delayMicroseconds(1);

            // Get the data back from the LCD
            data = LCD_BF_PIN;
    1a2e:	59 b1       	in	r21, 0x09	; 9
            // That excessive delay means our cycle time on E cannot be
            // shorter than 1000ns (500ns being the spec), so no further
            // delays are required

            // Bring E low
            LCD_E_PORT &= ~(1 << LCD_E);
    1a30:	5c 98       	cbi	0x0b, 4	; 11
        "   pop  r22"     "\n\t"   
        "   sbiw %0, 1"   "\n\t"
        "   brne 1b"
        : "=w" ( microseconds )  
        : "0" ( microseconds )
    );  
    1a32:	fc 01       	movw	r30, r24
    1a34:	6f 93       	push	r22
    1a36:	64 e0       	ldi	r22, 0x04	; 4
    1a38:	6a 95       	dec	r22
    1a3a:	f1 f7       	brne	.-4      	; 0x1a38 <_ZN6detail7Display12printNumToXYIjEEvT_hh+0x7c>
    1a3c:	6f 91       	pop	r22
    1a3e:	31 97       	sbiw	r30, 0x01	; 1
    1a40:	c9 f7       	brne	.-14     	; 0x1a34 <_ZN6detail7Display12printNumToXYIjEEvT_hh+0x78>

            // When using the 4-bit interface, we still need to
            // strobe out the 4 bits we don't care about:

            // Bring E high
            LCD_E_PORT |= 1 << LCD_E;
    1a42:	5c 9a       	sbi	0x0b, 4	; 11
        "   pop  r22"     "\n\t"   
        "   sbiw %0, 1"   "\n\t"
        "   brne 1b"
        : "=w" ( microseconds )  
        : "0" ( microseconds )
    );  
    1a44:	fc 01       	movw	r30, r24
    1a46:	6f 93       	push	r22
    1a48:	64 e0       	ldi	r22, 0x04	; 4
    1a4a:	6a 95       	dec	r22
    1a4c:	f1 f7       	brne	.-4      	; 0x1a4a <_ZN6detail7Display12printNumToXYIjEEvT_hh+0x8e>
    1a4e:	6f 91       	pop	r22
    1a50:	31 97       	sbiw	r30, 0x01	; 1
    1a52:	c9 f7       	brne	.-14     	; 0x1a46 <_ZN6detail7Display12printNumToXYIjEEvT_hh+0x8a>

            // Wait at least 120ns (1us is excessive)
            delayMicroseconds(1);

            // Bring E low
            LCD_E_PORT &= ~(1 << LCD_E);
    1a54:	5c 98       	cbi	0x0b, 4	; 11
            
            usCounter += 2;
        }
        while ((data & LCD_BF_MASK) && (usCounter < LCD_TIMEOUT));
    1a56:	55 23       	and	r21, r21
    1a58:	24 f4       	brge	.+8      	; 0x1a62 <_ZN6detail7Display12printNumToXYIjEEvT_hh+0xa6>
    1a5a:	21 50       	subi	r18, 0x01	; 1
    1a5c:	31 09       	sbc	r19, r1
    1a5e:	09 f0       	breq	.+2      	; 0x1a62 <_ZN6detail7Display12printNumToXYIjEEvT_hh+0xa6>
    1a60:	d5 cf       	rjmp	.-86     	; 0x1a0c <_ZN6detail7Display12printNumToXYIjEEvT_hh+0x50>
        // To reach here our busy flag must be zero, meaning the LCD is free
        // or the 20ms timeout period has elapsed    


        // Restore our DDR information
        LCD_BF_DDR = temp_ddr;
    1a62:	6a b9       	out	0x0a, r22	; 10
        busyWait();

        // Save our DDR and port information

        uint8_t temp_ddrb, temp_portb, temp_ddrd, temp_portd;
        temp_ddrb = DDRB;
    1a64:	34 b1       	in	r19, 0x04	; 4
        temp_portb = PORTB;
    1a66:	25 b1       	in	r18, 0x05	; 5
        temp_ddrd = DDRD;
    1a68:	6a b1       	in	r22, 0x0a	; 10
        temp_portd = PORTD;
    1a6a:	5b b1       	in	r21, 0x0b	; 11

        // Clear RW and set or clear RS based on the rs argument
        LCD_RW_PORT &= ~(1 << LCD_RW);
    1a6c:	28 98       	cbi	0x05, 0	; 5
        if (rs)
            LCD_RS_PORT |= 1 << LCD_RS;
        else
            LCD_RS_PORT &= ~(1 << LCD_RS);
    1a6e:	5a 98       	cbi	0x0b, 2	; 11

        // Set the data pins as outputs

        DDRB |= LCD_PORTB_MASK;
    1a70:	84 b1       	in	r24, 0x04	; 4
    1a72:	82 63       	ori	r24, 0x32	; 50
    1a74:	84 b9       	out	0x04, r24	; 4
        DDRD |= LCD_PORTD_MASK;
    1a76:	57 9a       	sbi	0x0a, 7	; 10

        if (numSends != 1)
            sendData(data >> 4);    // send high nibble via 4-bit interface
    1a78:	84 2f       	mov	r24, r20
    1a7a:	90 e0       	ldi	r25, 0x00	; 0
    1a7c:	95 95       	asr	r25
    1a7e:	87 95       	ror	r24
    1a80:	95 95       	asr	r25
    1a82:	87 95       	ror	r24
    1a84:	95 95       	asr	r25
    1a86:	87 95       	ror	r24
    1a88:	95 95       	asr	r25
    1a8a:	87 95       	ror	r24
    // is clear, that our DDRs are all set, etc.  Basically all it does is
    // line up the bits and send them out the appropriate I/O lines while
    // strobing the E control line.
    void sendData(uint8_t data)
    {
        PORTB = (PORTB & ~LCD_PORTB_MASK) | LCD_PORTB_DATA(data);
    1a8c:	95 b1       	in	r25, 0x05	; 5
    1a8e:	80 fb       	bst	r24, 0
    1a90:	aa 24       	eor	r10, r10
    1a92:	a0 f8       	bld	r10, 0
    1a94:	b1 2c       	mov	r11, r1
    1a96:	aa 0c       	add	r10, r10
    1a98:	bb 1c       	adc	r11, r11
    1a9a:	78 2f       	mov	r23, r24
    1a9c:	76 70       	andi	r23, 0x06	; 6
    1a9e:	77 0f       	add	r23, r23
    1aa0:	77 0f       	add	r23, r23
    1aa2:	77 0f       	add	r23, r23
    1aa4:	a7 2a       	or	r10, r23
    1aa6:	9d 7c       	andi	r25, 0xCD	; 205
    1aa8:	9a 29       	or	r25, r10
    1aaa:	95 b9       	out	0x05, r25	; 5
        PORTD = (PORTD & ~LCD_PORTD_MASK) | LCD_PORTD_DATA(data);
    1aac:	9b b1       	in	r25, 0x0b	; 11
    1aae:	88 70       	andi	r24, 0x08	; 8
    1ab0:	82 95       	swap	r24
    1ab2:	80 7f       	andi	r24, 0xF0	; 240
    1ab4:	9f 77       	andi	r25, 0x7F	; 127
    1ab6:	89 2b       	or	r24, r25
    1ab8:	8b b9       	out	0x0b, r24	; 11

        // At this point the four data lines are set, so the Enable pin 
        // is strobed to let the LCD latch them.

        // Bring E high
        LCD_E_PORT |= 1 << LCD_E;
    1aba:	5c 9a       	sbi	0x0b, 4	; 11
        "   pop  r22"     "\n\t"   
        "   sbiw %0, 1"   "\n\t"
        "   brne 1b"
        : "=w" ( microseconds )  
        : "0" ( microseconds )
    );  
    1abc:	81 e0       	ldi	r24, 0x01	; 1
    1abe:	90 e0       	ldi	r25, 0x00	; 0
    1ac0:	fc 01       	movw	r30, r24
    1ac2:	6f 93       	push	r22
    1ac4:	64 e0       	ldi	r22, 0x04	; 4
    1ac6:	6a 95       	dec	r22
    1ac8:	f1 f7       	brne	.-4      	; 0x1ac6 <_ZN6detail7Display12printNumToXYIjEEvT_hh+0x10a>
    1aca:	6f 91       	pop	r22
    1acc:	31 97       	sbiw	r30, 0x01	; 1
    1ace:	c9 f7       	brne	.-14     	; 0x1ac2 <_ZN6detail7Display12printNumToXYIjEEvT_hh+0x106>
        
        // Wait => 450ns (1us is excessive)
        delayMicroseconds(1);

        // Bring E low
        LCD_E_PORT &= ~(1 << LCD_E);
    1ad0:	5c 98       	cbi	0x0b, 4	; 11
        "   pop  r22"     "\n\t"   
        "   sbiw %0, 1"   "\n\t"
        "   brne 1b"
        : "=w" ( microseconds )  
        : "0" ( microseconds )
    );  
    1ad2:	fc 01       	movw	r30, r24
    1ad4:	6f 93       	push	r22
    1ad6:	64 e0       	ldi	r22, 0x04	; 4
    1ad8:	6a 95       	dec	r22
    1ada:	f1 f7       	brne	.-4      	; 0x1ad8 <_ZN6detail7Display12printNumToXYIjEEvT_hh+0x11c>
    1adc:	6f 91       	pop	r22
    1ade:	31 97       	sbiw	r30, 0x01	; 1
    1ae0:	c9 f7       	brne	.-14     	; 0x1ad4 <_ZN6detail7Display12printNumToXYIjEEvT_hh+0x118>
    // is clear, that our DDRs are all set, etc.  Basically all it does is
    // line up the bits and send them out the appropriate I/O lines while
    // strobing the E control line.
    void sendData(uint8_t data)
    {
        PORTB = (PORTB & ~LCD_PORTB_MASK) | LCD_PORTB_DATA(data);
    1ae2:	75 b1       	in	r23, 0x05	; 5
    1ae4:	a4 2f       	mov	r26, r20
    1ae6:	a1 70       	andi	r26, 0x01	; 1
    1ae8:	b0 e0       	ldi	r27, 0x00	; 0
    1aea:	aa 0f       	add	r26, r26
    1aec:	bb 1f       	adc	r27, r27
    1aee:	e4 2f       	mov	r30, r20
    1af0:	e6 70       	andi	r30, 0x06	; 6
    1af2:	ee 0f       	add	r30, r30
    1af4:	ee 0f       	add	r30, r30
    1af6:	ee 0f       	add	r30, r30
    1af8:	ae 2b       	or	r26, r30
    1afa:	7d 7c       	andi	r23, 0xCD	; 205
    1afc:	a7 2b       	or	r26, r23
    1afe:	a5 b9       	out	0x05, r26	; 5
        PORTD = (PORTD & ~LCD_PORTD_MASK) | LCD_PORTD_DATA(data);
    1b00:	7b b1       	in	r23, 0x0b	; 11
    1b02:	48 70       	andi	r20, 0x08	; 8
    1b04:	42 95       	swap	r20
    1b06:	40 7f       	andi	r20, 0xF0	; 240
    1b08:	7f 77       	andi	r23, 0x7F	; 127
    1b0a:	47 2b       	or	r20, r23
    1b0c:	4b b9       	out	0x0b, r20	; 11

        // At this point the four data lines are set, so the Enable pin 
        // is strobed to let the LCD latch them.

        // Bring E high
        LCD_E_PORT |= 1 << LCD_E;
    1b0e:	5c 9a       	sbi	0x0b, 4	; 11
        "   pop  r22"     "\n\t"   
        "   sbiw %0, 1"   "\n\t"
        "   brne 1b"
        : "=w" ( microseconds )  
        : "0" ( microseconds )
    );  
    1b10:	fc 01       	movw	r30, r24
    1b12:	6f 93       	push	r22
    1b14:	64 e0       	ldi	r22, 0x04	; 4
    1b16:	6a 95       	dec	r22
    1b18:	f1 f7       	brne	.-4      	; 0x1b16 <_ZN6detail7Display12printNumToXYIjEEvT_hh+0x15a>
    1b1a:	6f 91       	pop	r22
    1b1c:	31 97       	sbiw	r30, 0x01	; 1
    1b1e:	c9 f7       	brne	.-14     	; 0x1b12 <_ZN6detail7Display12printNumToXYIjEEvT_hh+0x156>
        
        // Wait => 450ns (1us is excessive)
        delayMicroseconds(1);

        // Bring E low
        LCD_E_PORT &= ~(1 << LCD_E);
    1b20:	5c 98       	cbi	0x0b, 4	; 11
        "   pop  r22"     "\n\t"   
        "   sbiw %0, 1"   "\n\t"
        "   brne 1b"
        : "=w" ( microseconds )  
        : "0" ( microseconds )
    );  
    1b22:	6f 93       	push	r22
    1b24:	64 e0       	ldi	r22, 0x04	; 4
    1b26:	6a 95       	dec	r22
    1b28:	f1 f7       	brne	.-4      	; 0x1b26 <_ZN6detail7Display12printNumToXYIjEEvT_hh+0x16a>
    1b2a:	6f 91       	pop	r22
    1b2c:	01 97       	sbiw	r24, 0x01	; 1
    1b2e:	c9 f7       	brne	.-14     	; 0x1b22 <_ZN6detail7Display12printNumToXYIjEEvT_hh+0x166>
            sendData(data >> 4);    // send high nibble via 4-bit interface
        sendData(data & 0x0F);    // send low nibble via 4-bit interface


        // Restore our DDR and port information
        DDRD = temp_ddrd;
    1b30:	6a b9       	out	0x0a, r22	; 10
        PORTD = temp_portd;
    1b32:	5b b9       	out	0x0b, r21	; 11
        DDRB = temp_ddrb;
    1b34:	34 b9       	out	0x04, r19	; 4
        PORTB = temp_portb;
    1b36:	25 b9       	out	0x05, r18	; 5
    void printNumber(T n, uint8_t width = 0)
    {
        char buf[32];
        uint8_t len = 0;

        if (n != 0)
    1b38:	c1 14       	cp	r12, r1
    1b3a:	d1 04       	cpc	r13, r1
    1b3c:	29 f1       	breq	.+74     	; 0x1b88 <_ZN6detail7Display12printNumToXYIjEEvT_hh+0x1cc>
    1b3e:	40 e0       	ldi	r20, 0x00	; 0
        {
            T a = abs(n);

            while (a > 0)
            {
                T b = a / 10;
    1b40:	96 01       	movw	r18, r12
    1b42:	ad ec       	ldi	r26, 0xCD	; 205
    1b44:	bc ec       	ldi	r27, 0xCC	; 204
    1b46:	0e 94 86 10 	call	0x210c	; 0x210c <__umulhisi3>
    1b4a:	9c 01       	movw	r18, r24
    1b4c:	36 95       	lsr	r19
    1b4e:	27 95       	ror	r18
    1b50:	36 95       	lsr	r19
    1b52:	27 95       	ror	r18
    1b54:	36 95       	lsr	r19
    1b56:	27 95       	ror	r18
                buf[len++] = '0' + (a - b * 10);
    1b58:	71 e0       	ldi	r23, 0x01	; 1
    1b5a:	74 0f       	add	r23, r20
    1b5c:	e1 e0       	ldi	r30, 0x01	; 1
    1b5e:	f0 e0       	ldi	r31, 0x00	; 0
    1b60:	ec 0f       	add	r30, r28
    1b62:	fd 1f       	adc	r31, r29
    1b64:	e4 0f       	add	r30, r20
    1b66:	f1 1d       	adc	r31, r1
    1b68:	40 e3       	ldi	r20, 0x30	; 48
    1b6a:	4c 0d       	add	r20, r12
    1b6c:	82 2f       	mov	r24, r18
    1b6e:	88 0f       	add	r24, r24
    1b70:	98 2f       	mov	r25, r24
    1b72:	99 0f       	add	r25, r25
    1b74:	99 0f       	add	r25, r25
    1b76:	98 0f       	add	r25, r24
    1b78:	c4 2e       	mov	r12, r20
    1b7a:	c9 1a       	sub	r12, r25
    1b7c:	c0 82       	st	Z, r12
                a = b;
    1b7e:	69 01       	movw	r12, r18
            T a = abs(n);

            while (a > 0)
            {
                T b = a / 10;
                buf[len++] = '0' + (a - b * 10);
    1b80:	47 2f       	mov	r20, r23

        if (n != 0)
        {
            T a = abs(n);

            while (a > 0)
    1b82:	23 2b       	or	r18, r19
    1b84:	e9 f6       	brne	.-70     	; 0x1b40 <_ZN6detail7Display12printNumToXYIjEEvT_hh+0x184>
    1b86:	04 c0       	rjmp	.+8      	; 0x1b90 <_ZN6detail7Display12printNumToXYIjEEvT_hh+0x1d4>

            if (n < 0)
                buf[len++] = '-';
        }
        else
            buf[len++] = '0';
    1b88:	80 e3       	ldi	r24, 0x30	; 48
    1b8a:	89 83       	std	Y+1, r24	; 0x01
    1b8c:	71 e0       	ldi	r23, 0x01	; 1
    1b8e:	03 c0       	rjmp	.+6      	; 0x1b96 <_ZN6detail7Display12printNumToXYIjEEvT_hh+0x1da>

        for (; width > len; --width)
            send_data(' ');
        
        for (; len > 0; --len)
    1b90:	77 23       	and	r23, r23
    1b92:	09 f4       	brne	.+2      	; 0x1b96 <_ZN6detail7Display12printNumToXYIjEEvT_hh+0x1da>
    1b94:	a9 c0       	rjmp	.+338    	; 0x1ce8 <_ZN6detail7Display12printNumToXYIjEEvT_hh+0x32c>
        "   pop  r22"     "\n\t"   
        "   sbiw %0, 1"   "\n\t"
        "   brne 1b"
        : "=w" ( microseconds )  
        : "0" ( microseconds )
    );  
    1b96:	81 e0       	ldi	r24, 0x01	; 1
    1b98:	90 e0       	ldi	r25, 0x00	; 0

        for (; width > len; --width)
            send_data(' ');
        
        for (; len > 0; --len)
            send_data(buf[len-1]);
    1b9a:	fe 01       	movw	r30, r28
    1b9c:	e7 0f       	add	r30, r23
    1b9e:	f1 1d       	adc	r31, r1
    1ba0:	50 81       	ld	r21, Z
    void busyWait()
    {
        uint8_t temp_ddr, data;

        // Save our DDR information
        temp_ddr = LCD_BF_DDR;
    1ba2:	6a b1       	in	r22, 0x0a	; 10

        // Set up the data DDR for input
        LCD_BF_DDR &= ~LCD_BF_MASK;
    1ba4:	57 98       	cbi	0x0a, 7	; 10

        // Set up RS and RW to read the state of the LCD's busy flag
        LCD_RS_PORT &= ~(1 << LCD_RS);
    1ba6:	5a 98       	cbi	0x0b, 2	; 11
        LCD_RW_PORT |= 1 << LCD_RW;
    1ba8:	28 9a       	sbi	0x05, 0	; 5
    1baa:	24 ec       	ldi	r18, 0xC4	; 196
    1bac:	39 e0       	ldi	r19, 0x09	; 9
        "   pop  r22"     "\n\t"   
        "   sbiw %0, 1"   "\n\t"
        "   brne 1b"
        : "=w" ( microseconds )  
        : "0" ( microseconds )
    );  
    1bae:	fc 01       	movw	r30, r24
    1bb0:	6f 93       	push	r22
    1bb2:	64 e0       	ldi	r22, 0x04	; 4
    1bb4:	6a 95       	dec	r22
    1bb6:	f1 f7       	brne	.-4      	; 0x1bb4 <_ZN6detail7Display12printNumToXYIjEEvT_hh+0x1f8>
    1bb8:	6f 91       	pop	r22
    1bba:	31 97       	sbiw	r30, 0x01	; 1
    1bbc:	c9 f7       	brne	.-14     	; 0x1bb0 <_ZN6detail7Display12printNumToXYIjEEvT_hh+0x1f4>
        do
        {
            delayMicroseconds(1);
            
            // Bring E high
            LCD_E_PORT |= 1 << LCD_E;
    1bbe:	5c 9a       	sbi	0x0b, 4	; 11
        "   pop  r22"     "\n\t"   
        "   sbiw %0, 1"   "\n\t"
        "   brne 1b"
        : "=w" ( microseconds )  
        : "0" ( microseconds )
    );  
    1bc0:	fc 01       	movw	r30, r24
    1bc2:	6f 93       	push	r22
    1bc4:	64 e0       	ldi	r22, 0x04	; 4
    1bc6:	6a 95       	dec	r22
    1bc8:	f1 f7       	brne	.-4      	; 0x1bc6 <_ZN6detail7Display12printNumToXYIjEEvT_hh+0x20a>
    1bca:	6f 91       	pop	r22
    1bcc:	31 97       	sbiw	r30, 0x01	; 1
    1bce:	c9 f7       	brne	.-14     	; 0x1bc2 <_ZN6detail7Display12printNumToXYIjEEvT_hh+0x206>

            // Wait at least 120ns (1us is excessive)
            delayMicroseconds(1);

            // Get the data back from the LCD
            data = LCD_BF_PIN;
    1bd0:	49 b1       	in	r20, 0x09	; 9
            // That excessive delay means our cycle time on E cannot be
            // shorter than 1000ns (500ns being the spec), so no further
            // delays are required

            // Bring E low
            LCD_E_PORT &= ~(1 << LCD_E);
    1bd2:	5c 98       	cbi	0x0b, 4	; 11
        "   pop  r22"     "\n\t"   
        "   sbiw %0, 1"   "\n\t"
        "   brne 1b"
        : "=w" ( microseconds )  
        : "0" ( microseconds )
    );  
    1bd4:	fc 01       	movw	r30, r24
    1bd6:	6f 93       	push	r22
    1bd8:	64 e0       	ldi	r22, 0x04	; 4
    1bda:	6a 95       	dec	r22
    1bdc:	f1 f7       	brne	.-4      	; 0x1bda <_ZN6detail7Display12printNumToXYIjEEvT_hh+0x21e>
    1bde:	6f 91       	pop	r22
    1be0:	31 97       	sbiw	r30, 0x01	; 1
    1be2:	c9 f7       	brne	.-14     	; 0x1bd6 <_ZN6detail7Display12printNumToXYIjEEvT_hh+0x21a>

            // When using the 4-bit interface, we still need to
            // strobe out the 4 bits we don't care about:

            // Bring E high
            LCD_E_PORT |= 1 << LCD_E;
    1be4:	5c 9a       	sbi	0x0b, 4	; 11
        "   pop  r22"     "\n\t"   
        "   sbiw %0, 1"   "\n\t"
        "   brne 1b"
        : "=w" ( microseconds )  
        : "0" ( microseconds )
    );  
    1be6:	fc 01       	movw	r30, r24
    1be8:	6f 93       	push	r22
    1bea:	64 e0       	ldi	r22, 0x04	; 4
    1bec:	6a 95       	dec	r22
    1bee:	f1 f7       	brne	.-4      	; 0x1bec <_ZN6detail7Display12printNumToXYIjEEvT_hh+0x230>
    1bf0:	6f 91       	pop	r22
    1bf2:	31 97       	sbiw	r30, 0x01	; 1
    1bf4:	c9 f7       	brne	.-14     	; 0x1be8 <_ZN6detail7Display12printNumToXYIjEEvT_hh+0x22c>

            // Wait at least 120ns (1us is excessive)
            delayMicroseconds(1);

            // Bring E low
            LCD_E_PORT &= ~(1 << LCD_E);
    1bf6:	5c 98       	cbi	0x0b, 4	; 11
            
            usCounter += 2;
        }
        while ((data & LCD_BF_MASK) && (usCounter < LCD_TIMEOUT));
    1bf8:	44 23       	and	r20, r20
    1bfa:	24 f4       	brge	.+8      	; 0x1c04 <_ZN6detail7Display12printNumToXYIjEEvT_hh+0x248>
    1bfc:	21 50       	subi	r18, 0x01	; 1
    1bfe:	31 09       	sbc	r19, r1
    1c00:	09 f0       	breq	.+2      	; 0x1c04 <_ZN6detail7Display12printNumToXYIjEEvT_hh+0x248>
    1c02:	d5 cf       	rjmp	.-86     	; 0x1bae <_ZN6detail7Display12printNumToXYIjEEvT_hh+0x1f2>
        // To reach here our busy flag must be zero, meaning the LCD is free
        // or the 20ms timeout period has elapsed    


        // Restore our DDR information
        LCD_BF_DDR = temp_ddr;
    1c04:	6a b9       	out	0x0a, r22	; 10
        busyWait();

        // Save our DDR and port information

        uint8_t temp_ddrb, temp_portb, temp_ddrd, temp_portd;
        temp_ddrb = DDRB;
    1c06:	e4 b1       	in	r30, 0x04	; 4
        temp_portb = PORTB;
    1c08:	65 b1       	in	r22, 0x05	; 5
        temp_ddrd = DDRD;
    1c0a:	ba b0       	in	r11, 0x0a	; 10
        temp_portd = PORTD;
    1c0c:	fb b1       	in	r31, 0x0b	; 11

        // Clear RW and set or clear RS based on the rs argument
        LCD_RW_PORT &= ~(1 << LCD_RW);
    1c0e:	28 98       	cbi	0x05, 0	; 5
        if (rs)
            LCD_RS_PORT |= 1 << LCD_RS;
    1c10:	5a 9a       	sbi	0x0b, 2	; 11
        else
            LCD_RS_PORT &= ~(1 << LCD_RS);

        // Set the data pins as outputs

        DDRB |= LCD_PORTB_MASK;
    1c12:	24 b1       	in	r18, 0x04	; 4
    1c14:	22 63       	ori	r18, 0x32	; 50
    1c16:	24 b9       	out	0x04, r18	; 4
        DDRD |= LCD_PORTD_MASK;
    1c18:	57 9a       	sbi	0x0a, 7	; 10

        if (numSends != 1)
            sendData(data >> 4);    // send high nibble via 4-bit interface
    1c1a:	25 2f       	mov	r18, r21
    1c1c:	30 e0       	ldi	r19, 0x00	; 0
    1c1e:	35 95       	asr	r19
    1c20:	27 95       	ror	r18
    1c22:	35 95       	asr	r19
    1c24:	27 95       	ror	r18
    1c26:	35 95       	asr	r19
    1c28:	27 95       	ror	r18
    1c2a:	35 95       	asr	r19
    1c2c:	27 95       	ror	r18
    // is clear, that our DDRs are all set, etc.  Basically all it does is
    // line up the bits and send them out the appropriate I/O lines while
    // strobing the E control line.
    void sendData(uint8_t data)
    {
        PORTB = (PORTB & ~LCD_PORTB_MASK) | LCD_PORTB_DATA(data);
    1c2e:	45 b1       	in	r20, 0x05	; 5
    1c30:	02 2f       	mov	r16, r18
    1c32:	01 70       	andi	r16, 0x01	; 1
    1c34:	10 e0       	ldi	r17, 0x00	; 0
    1c36:	68 01       	movw	r12, r16
    1c38:	cc 0c       	add	r12, r12
    1c3a:	dd 1c       	adc	r13, r13
    1c3c:	32 2f       	mov	r19, r18
    1c3e:	36 70       	andi	r19, 0x06	; 6
    1c40:	33 0f       	add	r19, r19
    1c42:	33 0f       	add	r19, r19
    1c44:	33 0f       	add	r19, r19
    1c46:	3c 29       	or	r19, r12
    1c48:	4d 7c       	andi	r20, 0xCD	; 205
    1c4a:	34 2b       	or	r19, r20
    1c4c:	35 b9       	out	0x05, r19	; 5
        PORTD = (PORTD & ~LCD_PORTD_MASK) | LCD_PORTD_DATA(data);
    1c4e:	4b b1       	in	r20, 0x0b	; 11
    1c50:	32 2f       	mov	r19, r18
    1c52:	38 70       	andi	r19, 0x08	; 8
    1c54:	32 95       	swap	r19
    1c56:	30 7f       	andi	r19, 0xF0	; 240
    1c58:	24 2f       	mov	r18, r20
    1c5a:	2f 77       	andi	r18, 0x7F	; 127
    1c5c:	32 2b       	or	r19, r18
    1c5e:	3b b9       	out	0x0b, r19	; 11

        // At this point the four data lines are set, so the Enable pin 
        // is strobed to let the LCD latch them.

        // Bring E high
        LCD_E_PORT |= 1 << LCD_E;
    1c60:	5c 9a       	sbi	0x0b, 4	; 11
        "   pop  r22"     "\n\t"   
        "   sbiw %0, 1"   "\n\t"
        "   brne 1b"
        : "=w" ( microseconds )  
        : "0" ( microseconds )
    );  
    1c62:	dc 01       	movw	r26, r24
    1c64:	6f 93       	push	r22
    1c66:	64 e0       	ldi	r22, 0x04	; 4
    1c68:	6a 95       	dec	r22
    1c6a:	f1 f7       	brne	.-4      	; 0x1c68 <_ZN6detail7Display12printNumToXYIjEEvT_hh+0x2ac>
    1c6c:	6f 91       	pop	r22
    1c6e:	11 97       	sbiw	r26, 0x01	; 1
    1c70:	c9 f7       	brne	.-14     	; 0x1c64 <_ZN6detail7Display12printNumToXYIjEEvT_hh+0x2a8>
        
        // Wait => 450ns (1us is excessive)
        delayMicroseconds(1);

        // Bring E low
        LCD_E_PORT &= ~(1 << LCD_E);
    1c72:	5c 98       	cbi	0x0b, 4	; 11
        "   pop  r22"     "\n\t"   
        "   sbiw %0, 1"   "\n\t"
        "   brne 1b"
        : "=w" ( microseconds )  
        : "0" ( microseconds )
    );  
    1c74:	dc 01       	movw	r26, r24
    1c76:	6f 93       	push	r22
    1c78:	64 e0       	ldi	r22, 0x04	; 4
    1c7a:	6a 95       	dec	r22
    1c7c:	f1 f7       	brne	.-4      	; 0x1c7a <_ZN6detail7Display12printNumToXYIjEEvT_hh+0x2be>
    1c7e:	6f 91       	pop	r22
    1c80:	11 97       	sbiw	r26, 0x01	; 1
    1c82:	c9 f7       	brne	.-14     	; 0x1c76 <_ZN6detail7Display12printNumToXYIjEEvT_hh+0x2ba>
    // is clear, that our DDRs are all set, etc.  Basically all it does is
    // line up the bits and send them out the appropriate I/O lines while
    // strobing the E control line.
    void sendData(uint8_t data)
    {
        PORTB = (PORTB & ~LCD_PORTB_MASK) | LCD_PORTB_DATA(data);
    1c84:	35 b1       	in	r19, 0x05	; 5
    1c86:	50 fb       	bst	r21, 0
    1c88:	ee 24       	eor	r14, r14
    1c8a:	e0 f8       	bld	r14, 0
    1c8c:	f1 2c       	mov	r15, r1
    1c8e:	67 01       	movw	r12, r14
    1c90:	cc 0c       	add	r12, r12
    1c92:	dd 1c       	adc	r13, r13
    1c94:	25 2f       	mov	r18, r21
    1c96:	26 70       	andi	r18, 0x06	; 6
    1c98:	22 0f       	add	r18, r18
    1c9a:	22 0f       	add	r18, r18
    1c9c:	22 0f       	add	r18, r18
    1c9e:	2c 29       	or	r18, r12
    1ca0:	3d 7c       	andi	r19, 0xCD	; 205
    1ca2:	23 2b       	or	r18, r19
    1ca4:	25 b9       	out	0x05, r18	; 5
        PORTD = (PORTD & ~LCD_PORTD_MASK) | LCD_PORTD_DATA(data);
    1ca6:	3b b1       	in	r19, 0x0b	; 11
    1ca8:	25 2f       	mov	r18, r21
    1caa:	28 70       	andi	r18, 0x08	; 8
    1cac:	22 95       	swap	r18
    1cae:	20 7f       	andi	r18, 0xF0	; 240
    1cb0:	3f 77       	andi	r19, 0x7F	; 127
    1cb2:	23 2b       	or	r18, r19
    1cb4:	2b b9       	out	0x0b, r18	; 11

        // At this point the four data lines are set, so the Enable pin 
        // is strobed to let the LCD latch them.

        // Bring E high
        LCD_E_PORT |= 1 << LCD_E;
    1cb6:	5c 9a       	sbi	0x0b, 4	; 11
        "   pop  r22"     "\n\t"   
        "   sbiw %0, 1"   "\n\t"
        "   brne 1b"
        : "=w" ( microseconds )  
        : "0" ( microseconds )
    );  
    1cb8:	dc 01       	movw	r26, r24
    1cba:	6f 93       	push	r22
    1cbc:	64 e0       	ldi	r22, 0x04	; 4
    1cbe:	6a 95       	dec	r22
    1cc0:	f1 f7       	brne	.-4      	; 0x1cbe <_ZN6detail7Display12printNumToXYIjEEvT_hh+0x302>
    1cc2:	6f 91       	pop	r22
    1cc4:	11 97       	sbiw	r26, 0x01	; 1
    1cc6:	c9 f7       	brne	.-14     	; 0x1cba <_ZN6detail7Display12printNumToXYIjEEvT_hh+0x2fe>
        
        // Wait => 450ns (1us is excessive)
        delayMicroseconds(1);

        // Bring E low
        LCD_E_PORT &= ~(1 << LCD_E);
    1cc8:	5c 98       	cbi	0x0b, 4	; 11
        "   pop  r22"     "\n\t"   
        "   sbiw %0, 1"   "\n\t"
        "   brne 1b"
        : "=w" ( microseconds )  
        : "0" ( microseconds )
    );  
    1cca:	dc 01       	movw	r26, r24
    1ccc:	6f 93       	push	r22
    1cce:	64 e0       	ldi	r22, 0x04	; 4
    1cd0:	6a 95       	dec	r22
    1cd2:	f1 f7       	brne	.-4      	; 0x1cd0 <_ZN6detail7Display12printNumToXYIjEEvT_hh+0x314>
    1cd4:	6f 91       	pop	r22
    1cd6:	11 97       	sbiw	r26, 0x01	; 1
    1cd8:	c9 f7       	brne	.-14     	; 0x1ccc <_ZN6detail7Display12printNumToXYIjEEvT_hh+0x310>
            sendData(data >> 4);    // send high nibble via 4-bit interface
        sendData(data & 0x0F);    // send low nibble via 4-bit interface


        // Restore our DDR and port information
        DDRD = temp_ddrd;
    1cda:	ba b8       	out	0x0a, r11	; 10
        PORTD = temp_portd;
    1cdc:	fb b9       	out	0x0b, r31	; 11
        DDRB = temp_ddrb;
    1cde:	e4 b9       	out	0x04, r30	; 4
        PORTB = temp_portb;
    1ce0:	65 b9       	out	0x05, r22	; 5
            buf[len++] = '0';

        for (; width > len; --width)
            send_data(' ');
        
        for (; len > 0; --len)
    1ce2:	71 50       	subi	r23, 0x01	; 1
    1ce4:	09 f0       	breq	.+2      	; 0x1ce8 <_ZN6detail7Display12printNumToXYIjEEvT_hh+0x32c>
    1ce6:	59 cf       	rjmp	.-334    	; 0x1b9a <_ZN6detail7Display12printNumToXYIjEEvT_hh+0x1de>
    template <typename T>
    inline void printNumToXY(T num, uint8_t x, uint8_t y)
    {
        gotoXY(x, y);
        printNumber(num);
    }
    1ce8:	a0 96       	adiw	r28, 0x20	; 32
    1cea:	0f b6       	in	r0, 0x3f	; 63
    1cec:	f8 94       	cli
    1cee:	de bf       	out	0x3e, r29	; 62
    1cf0:	0f be       	out	0x3f, r0	; 63
    1cf2:	cd bf       	out	0x3d, r28	; 61
    1cf4:	df 91       	pop	r29
    1cf6:	cf 91       	pop	r28
    1cf8:	1f 91       	pop	r17
    1cfa:	0f 91       	pop	r16
    1cfc:	ff 90       	pop	r15
    1cfe:	ef 90       	pop	r14
    1d00:	df 90       	pop	r13
    1d02:	cf 90       	pop	r12
    1d04:	bf 90       	pop	r11
    1d06:	af 90       	pop	r10
    1d08:	08 95       	ret

00001d0a <_Z3runv>:
            start();
    }

    void start()
    {
        if(!m_freq)
    1d0a:	80 91 f7 01 	lds	r24, 0x01F7	; 0x8001f7 <buzzer>
    1d0e:	90 91 f8 01 	lds	r25, 0x01F8	; 0x8001f8 <buzzer+0x1>
    1d12:	89 2b       	or	r24, r25
    1d14:	21 f1       	breq	.+72     	; 0x1d5e <_Z3runv+0x54>
            return;

        m_running = m_started = true;
    1d16:	e7 ef       	ldi	r30, 0xF7	; 247
    1d18:	f1 e0       	ldi	r31, 0x01	; 1
    1d1a:	81 e0       	ldi	r24, 0x01	; 1
    1d1c:	81 87       	std	Z+9, r24	; 0x09
    1d1e:	80 87       	std	Z+8, r24	; 0x08

        if(!m_time_on)
    1d20:	82 81       	ldd	r24, Z+2	; 0x02
    1d22:	93 81       	ldd	r25, Z+3	; 0x03
    1d24:	00 97       	sbiw	r24, 0x00	; 0
    1d26:	39 f4       	brne	.+14     	; 0x1d36 <_Z3runv+0x2c>
            m_timer = -1;
    1d28:	8f ef       	ldi	r24, 0xFF	; 255
    1d2a:	9f ef       	ldi	r25, 0xFF	; 255
    1d2c:	90 93 fe 01 	sts	0x01FE, r25	; 0x8001fe <buzzer+0x7>
    1d30:	80 93 fd 01 	sts	0x01FD, r24	; 0x8001fd <buzzer+0x6>
    1d34:	04 c0       	rjmp	.+8      	; 0x1d3e <_Z3runv+0x34>
        else
            m_timer = m_time_on;
    1d36:	90 93 fe 01 	sts	0x01FE, r25	; 0x8001fe <buzzer+0x7>
    1d3a:	80 93 fd 01 	sts	0x01FD, r24	; 0x8001fd <buzzer+0x6>
        TCCR1B = (1 << WGM12) | (1 << CS11);
    1d3e:	8a e0       	ldi	r24, 0x0A	; 10
    1d40:	80 93 81 00 	sts	0x0081, r24	; 0x800081 <__DATA_REGION_ORIGIN__+0x21>
        OCR1AH = (m_freq >> 8);
    1d44:	e7 ef       	ldi	r30, 0xF7	; 247
    1d46:	f1 e0       	ldi	r31, 0x01	; 1
    1d48:	81 81       	ldd	r24, Z+1	; 0x01
    1d4a:	80 93 89 00 	sts	0x0089, r24	; 0x800089 <__DATA_REGION_ORIGIN__+0x29>
        OCR1AL = (m_freq & 0xFF);
    1d4e:	80 81       	ld	r24, Z
    1d50:	80 93 88 00 	sts	0x0088, r24	; 0x800088 <__DATA_REGION_ORIGIN__+0x28>
        TCCR1A |= (1 << COM1B0);
    1d54:	e0 e8       	ldi	r30, 0x80	; 128
    1d56:	f0 e0       	ldi	r31, 0x00	; 0
    1d58:	80 81       	ld	r24, Z
    1d5a:	80 61       	ori	r24, 0x10	; 16
    1d5c:	80 83       	st	Z, r24
		tick = tick + 500; 
	}
}
*/
void run(void)
{
    1d5e:	84 e6       	ldi	r24, 0x64	; 100
    1d60:	90 e0       	ldi	r25, 0x00	; 0
        "   pop  r22"     "\n\t"   
        "   sbiw %0, 1"   "\n\t"
        "   brne 1b"
        : "=w" ( microseconds )  
        : "0" ( microseconds )
    );  
    1d62:	28 ee       	ldi	r18, 0xE8	; 232
    1d64:	33 e0       	ldi	r19, 0x03	; 3
    1d66:	f9 01       	movw	r30, r18
    1d68:	6f 93       	push	r22
    1d6a:	64 e0       	ldi	r22, 0x04	; 4
    1d6c:	6a 95       	dec	r22
    1d6e:	f1 f7       	brne	.-4      	; 0x1d6c <_Z3runv+0x62>
    1d70:	6f 91       	pop	r22
    1d72:	31 97       	sbiw	r30, 0x01	; 1
    1d74:	c9 f7       	brne	.-14     	; 0x1d68 <_Z3runv+0x5e>
    1d76:	01 97       	sbiw	r24, 0x01	; 1
}

inline void delay(uint16_t ms)
{
    while (ms--)
    1d78:	b1 f7       	brne	.-20     	; 0x1d66 <_Z3runv+0x5c>
        TCCR1A |= (1 << COM1B0);
    }

    void stop()
    {
        m_running = m_started = false;
    1d7a:	e7 ef       	ldi	r30, 0xF7	; 247
    1d7c:	f1 e0       	ldi	r31, 0x01	; 1
    1d7e:	11 86       	std	Z+9, r1	; 0x09
    1d80:	10 86       	std	Z+8, r1	; 0x08
        TCCR1A = 0;
    1d82:	e0 e8       	ldi	r30, 0x80	; 128
    1d84:	f0 e0       	ldi	r31, 0x00	; 0
    1d86:	10 82       	st	Z, r1
        TCCR1B = 0;
    1d88:	10 92 81 00 	sts	0x0081, r1	; 0x800081 <__DATA_REGION_ORIGIN__+0x21>
        TCCR1A &= ~(1 << COM1B0);
    1d8c:	80 81       	ld	r24, Z
    1d8e:	8f 7e       	andi	r24, 0xEF	; 239
    1d90:	80 83       	st	Z, r24
	buzzer.start();
	delay(100);
	buzzer.stop();
	display.printToXY("press", 1, 0);
    1d92:	20 e0       	ldi	r18, 0x00	; 0
    1d94:	41 e0       	ldi	r20, 0x01	; 1
    1d96:	64 e0       	ldi	r22, 0x04	; 4
    1d98:	71 e0       	ldi	r23, 0x01	; 1
    1d9a:	84 ec       	ldi	r24, 0xC4	; 196
    1d9c:	91 e0       	ldi	r25, 0x01	; 1
    1d9e:	0e 94 61 04 	call	0x8c2	; 0x8c2 <_ZN6detail7Display9printToXYEPKchh>
	display.printToXY("Button_B", 0, 1);
    1da2:	21 e0       	ldi	r18, 0x01	; 1
    1da4:	40 e0       	ldi	r20, 0x00	; 0
    1da6:	6a e0       	ldi	r22, 0x0A	; 10
    1da8:	71 e0       	ldi	r23, 0x01	; 1
    1daa:	84 ec       	ldi	r24, 0xC4	; 196
    1dac:	91 e0       	ldi	r25, 0x01	; 1
    1dae:	0e 94 61 04 	call	0x8c2	; 0x8c2 <_ZN6detail7Display9printToXYEPKchh>
	cal_round();
    1db2:	0e 94 49 03 	call	0x692	; 0x692 <_Z9cal_roundv>
	
	waitForButton(BUTTON_B);
    1db6:	80 e1       	ldi	r24, 0x10	; 16
    1db8:	0e 94 01 0b 	call	0x1602	; 0x1602 <_Z13waitForButtonh>
            send_data(picture_p[i]);
        }
    }
    
    inline void clear() { send_cmd(LCD_CLEAR); }
    inline void send_cmd(uint8_t cmd) { send(cmd, 0, 2); }
    1dbc:	22 e0       	ldi	r18, 0x02	; 2
    1dbe:	40 e0       	ldi	r20, 0x00	; 0
    1dc0:	61 e0       	ldi	r22, 0x01	; 1
    1dc2:	84 ec       	ldi	r24, 0xC4	; 196
    1dc4:	91 e0       	ldi	r25, 0x01	; 1
    1dc6:	0e 94 d9 05 	call	0xbb2	; 0xbb2 <_ZN6detail7Display4sendEhhh>
    ADCSRA |= (1<<ADSC);
}

inline int16_t getSensorValue(uint8_t index, bool threshold = true)
{
    cli();
    1dca:	f8 94       	cli
    while (g_sensors.value[index] == 1024)
    1dcc:	80 91 e3 01 	lds	r24, 0x01E3	; 0x8001e3 <g_sensors+0xa>
    1dd0:	90 91 e4 01 	lds	r25, 0x01E4	; 0x8001e4 <g_sensors+0xb>
    1dd4:	81 15       	cp	r24, r1
    1dd6:	94 40       	sbci	r25, 0x04	; 4
    1dd8:	51 f4       	brne	.+20     	; 0x1dee <_Z3runv+0xe4>
    1dda:	e9 ed       	ldi	r30, 0xD9	; 217
    1ddc:	f1 e0       	ldi	r31, 0x01	; 1
    {
        sei();
    1dde:	78 94       	sei
#define JUNIOR_DO_IDLE()
#endif

inline void nop()
{
    asm volatile ("nop");
    1de0:	00 00       	nop
    cli();
    while (g_sensors.value[index] == 1024)
    {
        sei();
        nop();
        cli();
    1de2:	f8 94       	cli
}

inline int16_t getSensorValue(uint8_t index, bool threshold = true)
{
    cli();
    while (g_sensors.value[index] == 1024)
    1de4:	82 85       	ldd	r24, Z+10	; 0x0a
    1de6:	93 85       	ldd	r25, Z+11	; 0x0b
    1de8:	81 15       	cp	r24, r1
    1dea:	94 40       	sbci	r25, 0x04	; 4
    1dec:	c1 f3       	breq	.-16     	; 0x1dde <_Z3runv+0xd4>
    {
        sei();
        nop();
        cli();
    }
    int16_t res = g_sensors.value[index];
    1dee:	a0 91 e3 01 	lds	r26, 0x01E3	; 0x8001e3 <g_sensors+0xa>
    1df2:	b0 91 e4 01 	lds	r27, 0x01E4	; 0x8001e4 <g_sensors+0xb>
    sei();
    1df6:	78 94       	sei
#define JUNIOR_DO_IDLE()
#endif

inline void nop()
{
    asm volatile ("nop");
    1df8:	00 00       	nop
	display.clear();
	display.printNumToXY(getBatteryVoltage(), 2,0);
    1dfa:	28 e8       	ldi	r18, 0x88	; 136
    1dfc:	33 e1       	ldi	r19, 0x13	; 19
    1dfe:	0e 94 95 10 	call	0x212a	; 0x212a <__usmulhisi3>
    1e02:	61 50       	subi	r22, 0x01	; 1
    1e04:	7e 4f       	sbci	r23, 0xFE	; 254
    1e06:	8f 4f       	sbci	r24, 0xFF	; 255
    1e08:	9f 4f       	sbci	r25, 0xFF	; 255
    1e0a:	2f ef       	ldi	r18, 0xFF	; 255
    1e0c:	33 e0       	ldi	r19, 0x03	; 3
    1e0e:	40 e0       	ldi	r20, 0x00	; 0
    1e10:	50 e0       	ldi	r21, 0x00	; 0
    1e12:	0e 94 45 10 	call	0x208a	; 0x208a <__udivmodsi4>
    1e16:	da 01       	movw	r26, r20
    1e18:	c9 01       	movw	r24, r18
    1e1a:	88 0f       	add	r24, r24
    1e1c:	99 1f       	adc	r25, r25
    1e1e:	aa 1f       	adc	r26, r26
    1e20:	bb 1f       	adc	r27, r27
    1e22:	82 0f       	add	r24, r18
    1e24:	93 1f       	adc	r25, r19
    1e26:	a4 1f       	adc	r26, r20
    1e28:	b5 1f       	adc	r27, r21
    1e2a:	01 96       	adiw	r24, 0x01	; 1
    1e2c:	a1 1d       	adc	r26, r1
    1e2e:	b1 1d       	adc	r27, r1
    1e30:	bc 01       	movw	r22, r24
    1e32:	cd 01       	movw	r24, r26
    1e34:	96 95       	lsr	r25
    1e36:	87 95       	ror	r24
    1e38:	77 95       	ror	r23
    1e3a:	67 95       	ror	r22
    1e3c:	20 e0       	ldi	r18, 0x00	; 0
    1e3e:	42 e0       	ldi	r20, 0x02	; 2
    1e40:	84 ec       	ldi	r24, 0xC4	; 196
    1e42:	91 e0       	ldi	r25, 0x01	; 1
    1e44:	0e 94 de 0c 	call	0x19bc	; 0x19bc <_ZN6detail7Display12printNumToXYIjEEvT_hh>
	display.printToXY("mV", 6,0);
    1e48:	20 e0       	ldi	r18, 0x00	; 0
    1e4a:	46 e0       	ldi	r20, 0x06	; 6
    1e4c:	63 e1       	ldi	r22, 0x13	; 19
    1e4e:	71 e0       	ldi	r23, 0x01	; 1
    1e50:	84 ec       	ldi	r24, 0xC4	; 196
    1e52:	91 e0       	ldi	r25, 0x01	; 1
    1e54:	0e 94 61 04 	call	0x8c2	; 0x8c2 <_ZN6detail7Display9printToXYEPKchh>
    1e58:	88 ee       	ldi	r24, 0xE8	; 232
    1e5a:	93 e0       	ldi	r25, 0x03	; 3
        "   pop  r22"     "\n\t"   
        "   sbiw %0, 1"   "\n\t"
        "   brne 1b"
        : "=w" ( microseconds )  
        : "0" ( microseconds )
    );  
    1e5c:	28 ee       	ldi	r18, 0xE8	; 232
    1e5e:	33 e0       	ldi	r19, 0x03	; 3
    1e60:	f9 01       	movw	r30, r18
    1e62:	6f 93       	push	r22
    1e64:	64 e0       	ldi	r22, 0x04	; 4
    1e66:	6a 95       	dec	r22
    1e68:	f1 f7       	brne	.-4      	; 0x1e66 <_Z3runv+0x15c>
    1e6a:	6f 91       	pop	r22
    1e6c:	31 97       	sbiw	r30, 0x01	; 1
    1e6e:	c9 f7       	brne	.-14     	; 0x1e62 <_Z3runv+0x158>
    1e70:	01 97       	sbiw	r24, 0x01	; 1
}

inline void delay(uint16_t ms)
{
    while (ms--)
    1e72:	b1 f7       	brne	.-20     	; 0x1e60 <_Z3runv+0x156>
            send_data(picture_p[i]);
        }
    }
    
    inline void clear() { send_cmd(LCD_CLEAR); }
    inline void send_cmd(uint8_t cmd) { send(cmd, 0, 2); }
    1e74:	22 e0       	ldi	r18, 0x02	; 2
    1e76:	40 e0       	ldi	r20, 0x00	; 0
    1e78:	61 e0       	ldi	r22, 0x01	; 1
    1e7a:	84 ec       	ldi	r24, 0xC4	; 196
    1e7c:	91 e0       	ldi	r25, 0x01	; 1
    1e7e:	0e 94 d9 05 	call	0xbb2	; 0xbb2 <_ZN6detail7Display4sendEhhh>
	delay(1000);
	display.clear();
	display.printToXY("go!", 3,0);
    1e82:	20 e0       	ldi	r18, 0x00	; 0
    1e84:	43 e0       	ldi	r20, 0x03	; 3
    1e86:	66 e1       	ldi	r22, 0x16	; 22
    1e88:	71 e0       	ldi	r23, 0x01	; 1
    1e8a:	84 ec       	ldi	r24, 0xC4	; 196
    1e8c:	91 e0       	ldi	r25, 0x01	; 1
    1e8e:	0e 94 61 04 	call	0x8c2	; 0x8c2 <_ZN6detail7Display9printToXYEPKchh>
    {
		bool power = true;
		
		while(power)
		{
			tick = 1000;
    1e92:	08 ee       	ldi	r16, 0xE8	; 232
    1e94:	13 e0       	ldi	r17, 0x03	; 3
				int derivative = proportional - last_proportional;
			
				integral += proportional;
				last_proportional = proportional;
			
				int power_difference = proportional/20 + integral/10000 + derivative*3/2;
    1e96:	0f 2e       	mov	r0, r31
    1e98:	f4 e1       	ldi	r31, 0x14	; 20
    1e9a:	cf 2e       	mov	r12, r31
    1e9c:	d1 2c       	mov	r13, r1
    1e9e:	f0 2d       	mov	r31, r0
    1ea0:	0f 2e       	mov	r0, r31
    1ea2:	f0 e1       	ldi	r31, 0x10	; 16
    1ea4:	ef 2e       	mov	r14, r31
    1ea6:	f7 e2       	ldi	r31, 0x27	; 39
    1ea8:	ff 2e       	mov	r15, r31
    1eaa:	f0 2d       	mov	r31, r0
					motor_l = max+power_difference;
					motor_r = max;
				}
				else
				{
					motor_l = max;
    1eac:	cc e3       	ldi	r28, 0x3C	; 60
    1eae:	d0 e0       	ldi	r29, 0x00	; 0
    1eb0:	0f 2e       	mov	r0, r31
    1eb2:	f4 ec       	ldi	r31, 0xC4	; 196
    1eb4:	8f 2e       	mov	r8, r31
    1eb6:	f0 2d       	mov	r31, r0
    1eb8:	99 24       	eor	r9, r9
    1eba:	9a 94       	dec	r9
    {
		bool power = true;
		
		while(power)
		{
			tick = 1000;
    1ebc:	10 93 02 01 	sts	0x0102, r17	; 0x800102 <tick+0x1>
    1ec0:	00 93 01 01 	sts	0x0101, r16	; 0x800101 <tick>
			black = false;
    1ec4:	10 92 2b 01 	sts	0x012B, r1	; 0x80012b <black>
			//white_ = 0;
			
			position = getLinePos(white_line = false);
    1ec8:	10 92 00 01 	sts	0x0100, r1	; 0x800100 <__data_start>
    1ecc:	80 e0       	ldi	r24, 0x00	; 0
    1ece:	0e 94 81 03 	call	0x702	; 0x702 <_Z10getLinePosb>
    1ed2:	90 93 2d 01 	sts	0x012D, r25	; 0x80012d <position+0x1>
    1ed6:	80 93 2c 01 	sts	0x012C, r24	; 0x80012c <position>
			
			//rs232.sendNumber(white_);
			//rs232.send("\n");
			
			if(white_ () < 500) // vyjel si z ry
    1eda:	0e 94 54 0b 	call	0x16a8	; 0x16a8 <_Z6white_v>
    1ede:	84 3f       	cpi	r24, 0xF4	; 244
    1ee0:	91 40       	sbci	r25, 0x01	; 1
    1ee2:	1c f4       	brge	.+6      	; 0x1eea <_Z3runv+0x1e0>
			{
				white();
    1ee4:	0e 94 bc 0c 	call	0x1978	; 0x1978 <_Z5whitev>
    1ee8:	e9 cf       	rjmp	.-46     	; 0x1ebc <_Z3runv+0x1b2>
			}
			
			else
			{
				int proportional = ((int)position) - 2000;
    1eea:	80 91 2c 01 	lds	r24, 0x012C	; 0x80012c <position>
    1eee:	90 91 2d 01 	lds	r25, 0x012D	; 0x80012d <position+0x1>
    1ef2:	80 5d       	subi	r24, 0xD0	; 208
    1ef4:	97 40       	sbci	r25, 0x07	; 7
				int derivative = proportional - last_proportional;
    1ef6:	20 91 30 01 	lds	r18, 0x0130	; 0x800130 <last_proportional>
    1efa:	30 91 31 01 	lds	r19, 0x0131	; 0x800131 <last_proportional+0x1>
    1efe:	ac 01       	movw	r20, r24
    1f00:	42 1b       	sub	r20, r18
    1f02:	53 0b       	sbc	r21, r19
    1f04:	9a 01       	movw	r18, r20
			
				integral += proportional;
    1f06:	e0 91 2e 01 	lds	r30, 0x012E	; 0x80012e <integral>
    1f0a:	f0 91 2f 01 	lds	r31, 0x012F	; 0x80012f <integral+0x1>
    1f0e:	e8 0f       	add	r30, r24
    1f10:	f9 1f       	adc	r31, r25
    1f12:	f0 93 2f 01 	sts	0x012F, r31	; 0x80012f <integral+0x1>
    1f16:	e0 93 2e 01 	sts	0x012E, r30	; 0x80012e <integral>
				last_proportional = proportional;
    1f1a:	90 93 31 01 	sts	0x0131, r25	; 0x800131 <last_proportional+0x1>
    1f1e:	80 93 30 01 	sts	0x0130, r24	; 0x800130 <last_proportional>
			
				int power_difference = proportional/20 + integral/10000 + derivative*3/2;
    1f22:	b6 01       	movw	r22, r12
    1f24:	0e 94 31 10 	call	0x2062	; 0x2062 <__divmodhi4>
    1f28:	5b 01       	movw	r10, r22
    1f2a:	cf 01       	movw	r24, r30
    1f2c:	b7 01       	movw	r22, r14
    1f2e:	0e 94 31 10 	call	0x2062	; 0x2062 <__divmodhi4>
    1f32:	6a 0d       	add	r22, r10
    1f34:	7b 1d       	adc	r23, r11
    1f36:	59 01       	movw	r10, r18
    1f38:	aa 0c       	add	r10, r10
    1f3a:	bb 1c       	adc	r11, r11
    1f3c:	2a 0d       	add	r18, r10
    1f3e:	3b 1d       	adc	r19, r11
    1f40:	33 23       	and	r19, r19
    1f42:	14 f4       	brge	.+4      	; 0x1f48 <_Z3runv+0x23e>
    1f44:	2f 5f       	subi	r18, 0xFF	; 255
    1f46:	3f 4f       	sbci	r19, 0xFF	; 255
    1f48:	35 95       	asr	r19
    1f4a:	27 95       	ror	r18
    1f4c:	62 0f       	add	r22, r18
    1f4e:	73 1f       	adc	r23, r19
    1f50:	6d 33       	cpi	r22, 0x3D	; 61
    1f52:	71 05       	cpc	r23, r1
    1f54:	0c f0       	brlt	.+2      	; 0x1f58 <_Z3runv+0x24e>
    1f56:	be 01       	movw	r22, r28
    1f58:	64 3c       	cpi	r22, 0xC4	; 196
    1f5a:	5f ef       	ldi	r21, 0xFF	; 255
    1f5c:	75 07       	cpc	r23, r21
    1f5e:	14 f4       	brge	.+4      	; 0x1f64 <_Z3runv+0x25a>
    1f60:	68 2d       	mov	r22, r8
    1f62:	79 2d       	mov	r23, r9
				}
				if(power_difference < -max)
				{
					power_difference = -max;
				}
				if(power_difference < 0)
    1f64:	77 23       	and	r23, r23
    1f66:	5c f4       	brge	.+22     	; 0x1f7e <_Z3runv+0x274>
				{
					motor_l = max+power_difference;
    1f68:	64 5c       	subi	r22, 0xC4	; 196
    1f6a:	7f 4f       	sbci	r23, 0xFF	; 255
    1f6c:	70 93 3d 01 	sts	0x013D, r23	; 0x80013d <motor_l+0x1>
    1f70:	60 93 3c 01 	sts	0x013C, r22	; 0x80013c <motor_l>
					motor_r = max;
    1f74:	d0 93 3f 01 	sts	0x013F, r29	; 0x80013f <motor_r+0x1>
    1f78:	c0 93 3e 01 	sts	0x013E, r28	; 0x80013e <motor_r>
    1f7c:	9f cf       	rjmp	.-194    	; 0x1ebc <_Z3runv+0x1b2>
				}
				else
				{
					motor_l = max;
    1f7e:	d0 93 3d 01 	sts	0x013D, r29	; 0x80013d <motor_l+0x1>
    1f82:	c0 93 3c 01 	sts	0x013C, r28	; 0x80013c <motor_l>
					motor_r = max-power_difference;
    1f86:	ce 01       	movw	r24, r28
    1f88:	86 1b       	sub	r24, r22
    1f8a:	97 0b       	sbc	r25, r23
    1f8c:	90 93 3f 01 	sts	0x013F, r25	; 0x80013f <motor_r+0x1>
    1f90:	80 93 3e 01 	sts	0x013E, r24	; 0x80013e <motor_r>
    1f94:	93 cf       	rjmp	.-218    	; 0x1ebc <_Z3runv+0x1b2>

00001f96 <main>:

void run();

int main()
{
    init();
    1f96:	0e 94 3b 0b 	call	0x1676	; 0x1676 <_Z4initv>
    sei();
    1f9a:	78 94       	sei

	if (isPressed(BUTTON_A)) {
    1f9c:	19 99       	sbic	0x03, 1	; 3
    1f9e:	49 c0       	rjmp	.+146    	; 0x2032 <main+0x9c>
    ADCSRA |= (1<<ADSC);
}

inline int16_t getSensorValue(uint8_t index, bool threshold = true)
{
    cli();
    1fa0:	f8 94       	cli
    while (g_sensors.value[index] == 1024)
    1fa2:	80 91 e3 01 	lds	r24, 0x01E3	; 0x8001e3 <g_sensors+0xa>
    1fa6:	90 91 e4 01 	lds	r25, 0x01E4	; 0x8001e4 <g_sensors+0xb>
    1faa:	81 15       	cp	r24, r1
    1fac:	94 40       	sbci	r25, 0x04	; 4
    1fae:	51 f4       	brne	.+20     	; 0x1fc4 <main+0x2e>
    1fb0:	e9 ed       	ldi	r30, 0xD9	; 217
    1fb2:	f1 e0       	ldi	r31, 0x01	; 1
    {
        sei();
    1fb4:	78 94       	sei
#define JUNIOR_DO_IDLE()
#endif

inline void nop()
{
    asm volatile ("nop");
    1fb6:	00 00       	nop
    cli();
    while (g_sensors.value[index] == 1024)
    {
        sei();
        nop();
        cli();
    1fb8:	f8 94       	cli
}

inline int16_t getSensorValue(uint8_t index, bool threshold = true)
{
    cli();
    while (g_sensors.value[index] == 1024)
    1fba:	82 85       	ldd	r24, Z+10	; 0x0a
    1fbc:	93 85       	ldd	r25, Z+11	; 0x0b
    1fbe:	81 15       	cp	r24, r1
    1fc0:	94 40       	sbci	r25, 0x04	; 4
    1fc2:	c1 f3       	breq	.-16     	; 0x1fb4 <main+0x1e>
    {
        sei();
        nop();
        cli();
    }
    int16_t res = g_sensors.value[index];
    1fc4:	a0 91 e3 01 	lds	r26, 0x01E3	; 0x8001e3 <g_sensors+0xa>
    1fc8:	b0 91 e4 01 	lds	r27, 0x01E4	; 0x8001e4 <g_sensors+0xb>
    sei();
    1fcc:	78 94       	sei
#define JUNIOR_DO_IDLE()
#endif

inline void nop()
{
    asm volatile ("nop");
    1fce:	00 00       	nop
{
    init();
    sei();

	if (isPressed(BUTTON_A)) {
		display.printNumToXY(getBatteryVoltage(), 4,0);		
    1fd0:	28 e8       	ldi	r18, 0x88	; 136
    1fd2:	33 e1       	ldi	r19, 0x13	; 19
    1fd4:	0e 94 95 10 	call	0x212a	; 0x212a <__usmulhisi3>
    1fd8:	61 50       	subi	r22, 0x01	; 1
    1fda:	7e 4f       	sbci	r23, 0xFE	; 254
    1fdc:	8f 4f       	sbci	r24, 0xFF	; 255
    1fde:	9f 4f       	sbci	r25, 0xFF	; 255
    1fe0:	2f ef       	ldi	r18, 0xFF	; 255
    1fe2:	33 e0       	ldi	r19, 0x03	; 3
    1fe4:	40 e0       	ldi	r20, 0x00	; 0
    1fe6:	50 e0       	ldi	r21, 0x00	; 0
    1fe8:	0e 94 45 10 	call	0x208a	; 0x208a <__udivmodsi4>
    1fec:	a3 e0       	ldi	r26, 0x03	; 3
    1fee:	b0 e0       	ldi	r27, 0x00	; 0
    1ff0:	0e 94 9c 10 	call	0x2138	; 0x2138 <__muluhisi3>
    1ff4:	dc 01       	movw	r26, r24
    1ff6:	cb 01       	movw	r24, r22
    1ff8:	01 96       	adiw	r24, 0x01	; 1
    1ffa:	a1 1d       	adc	r26, r1
    1ffc:	b1 1d       	adc	r27, r1
    1ffe:	bc 01       	movw	r22, r24
    2000:	cd 01       	movw	r24, r26
    2002:	96 95       	lsr	r25
    2004:	87 95       	ror	r24
    2006:	77 95       	ror	r23
    2008:	67 95       	ror	r22
    200a:	20 e0       	ldi	r18, 0x00	; 0
    200c:	44 e0       	ldi	r20, 0x04	; 4
    200e:	84 ec       	ldi	r24, 0xC4	; 196
    2010:	91 e0       	ldi	r25, 0x01	; 1
    2012:	0e 94 de 0c 	call	0x19bc	; 0x19bc <_ZN6detail7Display12printNumToXYIjEEvT_hh>
    2016:	80 ed       	ldi	r24, 0xD0	; 208
    2018:	97 e0       	ldi	r25, 0x07	; 7
        "   pop  r22"     "\n\t"   
        "   sbiw %0, 1"   "\n\t"
        "   brne 1b"
        : "=w" ( microseconds )  
        : "0" ( microseconds )
    );  
    201a:	28 ee       	ldi	r18, 0xE8	; 232
    201c:	33 e0       	ldi	r19, 0x03	; 3
    201e:	f9 01       	movw	r30, r18
    2020:	6f 93       	push	r22
    2022:	64 e0       	ldi	r22, 0x04	; 4
    2024:	6a 95       	dec	r22
    2026:	f1 f7       	brne	.-4      	; 0x2024 <main+0x8e>
    2028:	6f 91       	pop	r22
    202a:	31 97       	sbiw	r30, 0x01	; 1
    202c:	c9 f7       	brne	.-14     	; 0x2020 <main+0x8a>
    202e:	01 97       	sbiw	r24, 0x01	; 1
}

inline void delay(uint16_t ms)
{
    while (ms--)
    2030:	b1 f7       	brne	.-20     	; 0x201e <main+0x88>
	if (isPressed(BUTTON_A)) {
		display.printNumToXY(getBatteryVoltage(), 4,0);		
		delay(2000);
	}
	
    run();
    2032:	0e 94 85 0e 	call	0x1d0a	; 0x1d0a <_Z3runv>

00002036 <_GLOBAL__sub_I_buzzer>:
class buzzer_t
{
public:
    buzzer_t()
    {
        m_running = m_emergencyEnabled = m_started = false;
    2036:	e7 ef       	ldi	r30, 0xF7	; 247
    2038:	f1 e0       	ldi	r31, 0x01	; 1
    203a:	11 86       	std	Z+9, r1	; 0x09
    203c:	13 86       	std	Z+11, r1	; 0x0b
    203e:	10 86       	std	Z+8, r1	; 0x08
        m_freq = 2500;
    2040:	84 ec       	ldi	r24, 0xC4	; 196
    2042:	99 e0       	ldi	r25, 0x09	; 9
    2044:	91 83       	std	Z+1, r25	; 0x01
    2046:	80 83       	st	Z, r24
        m_time_on = m_time_off = 0;
    2048:	15 82       	std	Z+5, r1	; 0x05
    204a:	14 82       	std	Z+4, r1	; 0x04
    204c:	13 82       	std	Z+3, r1	; 0x03
    204e:	12 82       	std	Z+2, r1	; 0x02
template <typename T, uint8_t size>
class queue
{
public:
    queue()
        : m_rd_ptr(0), m_wr_ptr(0)
    2050:	e0 e4       	ldi	r30, 0x40	; 64
    2052:	f1 e0       	ldi	r31, 0x01	; 1
    2054:	10 a2       	std	Z+32, r1	; 0x20
    2056:	11 a2       	std	Z+33, r1	; 0x21
    2058:	10 92 c2 01 	sts	0x01C2, r1	; 0x8001c2 <rs232+0x82>
    205c:	10 92 c3 01 	sts	0x01C3, r1	; 0x8001c3 <rs232+0x83>
    2060:	08 95       	ret

00002062 <__divmodhi4>:
    2062:	97 fb       	bst	r25, 7
    2064:	07 2e       	mov	r0, r23
    2066:	16 f4       	brtc	.+4      	; 0x206c <__divmodhi4+0xa>
    2068:	00 94       	com	r0
    206a:	07 d0       	rcall	.+14     	; 0x207a <__divmodhi4_neg1>
    206c:	77 fd       	sbrc	r23, 7
    206e:	09 d0       	rcall	.+18     	; 0x2082 <__divmodhi4_neg2>
    2070:	0e 94 af 10 	call	0x215e	; 0x215e <__udivmodhi4>
    2074:	07 fc       	sbrc	r0, 7
    2076:	05 d0       	rcall	.+10     	; 0x2082 <__divmodhi4_neg2>
    2078:	3e f4       	brtc	.+14     	; 0x2088 <__divmodhi4_exit>

0000207a <__divmodhi4_neg1>:
    207a:	90 95       	com	r25
    207c:	81 95       	neg	r24
    207e:	9f 4f       	sbci	r25, 0xFF	; 255
    2080:	08 95       	ret

00002082 <__divmodhi4_neg2>:
    2082:	70 95       	com	r23
    2084:	61 95       	neg	r22
    2086:	7f 4f       	sbci	r23, 0xFF	; 255

00002088 <__divmodhi4_exit>:
    2088:	08 95       	ret

0000208a <__udivmodsi4>:
    208a:	a1 e2       	ldi	r26, 0x21	; 33
    208c:	1a 2e       	mov	r1, r26
    208e:	aa 1b       	sub	r26, r26
    2090:	bb 1b       	sub	r27, r27
    2092:	fd 01       	movw	r30, r26
    2094:	0d c0       	rjmp	.+26     	; 0x20b0 <__udivmodsi4_ep>

00002096 <__udivmodsi4_loop>:
    2096:	aa 1f       	adc	r26, r26
    2098:	bb 1f       	adc	r27, r27
    209a:	ee 1f       	adc	r30, r30
    209c:	ff 1f       	adc	r31, r31
    209e:	a2 17       	cp	r26, r18
    20a0:	b3 07       	cpc	r27, r19
    20a2:	e4 07       	cpc	r30, r20
    20a4:	f5 07       	cpc	r31, r21
    20a6:	20 f0       	brcs	.+8      	; 0x20b0 <__udivmodsi4_ep>
    20a8:	a2 1b       	sub	r26, r18
    20aa:	b3 0b       	sbc	r27, r19
    20ac:	e4 0b       	sbc	r30, r20
    20ae:	f5 0b       	sbc	r31, r21

000020b0 <__udivmodsi4_ep>:
    20b0:	66 1f       	adc	r22, r22
    20b2:	77 1f       	adc	r23, r23
    20b4:	88 1f       	adc	r24, r24
    20b6:	99 1f       	adc	r25, r25
    20b8:	1a 94       	dec	r1
    20ba:	69 f7       	brne	.-38     	; 0x2096 <__udivmodsi4_loop>
    20bc:	60 95       	com	r22
    20be:	70 95       	com	r23
    20c0:	80 95       	com	r24
    20c2:	90 95       	com	r25
    20c4:	9b 01       	movw	r18, r22
    20c6:	ac 01       	movw	r20, r24
    20c8:	bd 01       	movw	r22, r26
    20ca:	cf 01       	movw	r24, r30
    20cc:	08 95       	ret

000020ce <__divmodsi4>:
    20ce:	05 2e       	mov	r0, r21
    20d0:	97 fb       	bst	r25, 7
    20d2:	1e f4       	brtc	.+6      	; 0x20da <__divmodsi4+0xc>
    20d4:	00 94       	com	r0
    20d6:	0e 94 7e 10 	call	0x20fc	; 0x20fc <__negsi2>
    20da:	57 fd       	sbrc	r21, 7
    20dc:	07 d0       	rcall	.+14     	; 0x20ec <__divmodsi4_neg2>
    20de:	0e 94 45 10 	call	0x208a	; 0x208a <__udivmodsi4>
    20e2:	07 fc       	sbrc	r0, 7
    20e4:	03 d0       	rcall	.+6      	; 0x20ec <__divmodsi4_neg2>
    20e6:	4e f4       	brtc	.+18     	; 0x20fa <__divmodsi4_exit>
    20e8:	0c 94 7e 10 	jmp	0x20fc	; 0x20fc <__negsi2>

000020ec <__divmodsi4_neg2>:
    20ec:	50 95       	com	r21
    20ee:	40 95       	com	r20
    20f0:	30 95       	com	r19
    20f2:	21 95       	neg	r18
    20f4:	3f 4f       	sbci	r19, 0xFF	; 255
    20f6:	4f 4f       	sbci	r20, 0xFF	; 255
    20f8:	5f 4f       	sbci	r21, 0xFF	; 255

000020fa <__divmodsi4_exit>:
    20fa:	08 95       	ret

000020fc <__negsi2>:
    20fc:	90 95       	com	r25
    20fe:	80 95       	com	r24
    2100:	70 95       	com	r23
    2102:	61 95       	neg	r22
    2104:	7f 4f       	sbci	r23, 0xFF	; 255
    2106:	8f 4f       	sbci	r24, 0xFF	; 255
    2108:	9f 4f       	sbci	r25, 0xFF	; 255
    210a:	08 95       	ret

0000210c <__umulhisi3>:
    210c:	a2 9f       	mul	r26, r18
    210e:	b0 01       	movw	r22, r0
    2110:	b3 9f       	mul	r27, r19
    2112:	c0 01       	movw	r24, r0
    2114:	a3 9f       	mul	r26, r19
    2116:	70 0d       	add	r23, r0
    2118:	81 1d       	adc	r24, r1
    211a:	11 24       	eor	r1, r1
    211c:	91 1d       	adc	r25, r1
    211e:	b2 9f       	mul	r27, r18
    2120:	70 0d       	add	r23, r0
    2122:	81 1d       	adc	r24, r1
    2124:	11 24       	eor	r1, r1
    2126:	91 1d       	adc	r25, r1
    2128:	08 95       	ret

0000212a <__usmulhisi3>:
    212a:	0e 94 86 10 	call	0x210c	; 0x210c <__umulhisi3>

0000212e <__usmulhisi3_tail>:
    212e:	b7 ff       	sbrs	r27, 7
    2130:	08 95       	ret
    2132:	82 1b       	sub	r24, r18
    2134:	93 0b       	sbc	r25, r19
    2136:	08 95       	ret

00002138 <__muluhisi3>:
    2138:	0e 94 86 10 	call	0x210c	; 0x210c <__umulhisi3>
    213c:	a5 9f       	mul	r26, r21
    213e:	90 0d       	add	r25, r0
    2140:	b4 9f       	mul	r27, r20
    2142:	90 0d       	add	r25, r0
    2144:	a4 9f       	mul	r26, r20
    2146:	80 0d       	add	r24, r0
    2148:	91 1d       	adc	r25, r1
    214a:	11 24       	eor	r1, r1
    214c:	08 95       	ret

0000214e <__mulshisi3>:
    214e:	b7 ff       	sbrs	r27, 7
    2150:	0c 94 9c 10 	jmp	0x2138	; 0x2138 <__muluhisi3>

00002154 <__mulohisi3>:
    2154:	0e 94 9c 10 	call	0x2138	; 0x2138 <__muluhisi3>
    2158:	82 1b       	sub	r24, r18
    215a:	93 0b       	sbc	r25, r19
    215c:	08 95       	ret

0000215e <__udivmodhi4>:
    215e:	aa 1b       	sub	r26, r26
    2160:	bb 1b       	sub	r27, r27
    2162:	51 e1       	ldi	r21, 0x11	; 17
    2164:	07 c0       	rjmp	.+14     	; 0x2174 <__udivmodhi4_ep>

00002166 <__udivmodhi4_loop>:
    2166:	aa 1f       	adc	r26, r26
    2168:	bb 1f       	adc	r27, r27
    216a:	a6 17       	cp	r26, r22
    216c:	b7 07       	cpc	r27, r23
    216e:	10 f0       	brcs	.+4      	; 0x2174 <__udivmodhi4_ep>
    2170:	a6 1b       	sub	r26, r22
    2172:	b7 0b       	sbc	r27, r23

00002174 <__udivmodhi4_ep>:
    2174:	88 1f       	adc	r24, r24
    2176:	99 1f       	adc	r25, r25
    2178:	5a 95       	dec	r21
    217a:	a9 f7       	brne	.-22     	; 0x2166 <__udivmodhi4_loop>
    217c:	80 95       	com	r24
    217e:	90 95       	com	r25
    2180:	bc 01       	movw	r22, r24
    2182:	cd 01       	movw	r24, r26
    2184:	08 95       	ret

00002186 <__tablejump2__>:
    2186:	ee 0f       	add	r30, r30
    2188:	ff 1f       	adc	r31, r31
    218a:	05 90       	lpm	r0, Z+
    218c:	f4 91       	lpm	r31, Z
    218e:	e0 2d       	mov	r30, r0
    2190:	09 94       	ijmp

00002192 <_exit>:
    2192:	f8 94       	cli

00002194 <__stop_program>:
    2194:	ff cf       	rjmp	.-2      	; 0x2194 <__stop_program>
